
ctarget:     file format elf64-x86-64


Disassembly of section .init:

0000000000401000 <_init>:
  401000:	48 83 ec 08          	sub    $0x8,%rsp
  401004:	48 8b 05 ed 5f 00 00 	mov    0x5fed(%rip),%rax        # 406ff8 <__gmon_start__>
  40100b:	48 85 c0             	test   %rax,%rax
  40100e:	74 02                	je     401012 <_init+0x12>
  401010:	ff d0                	callq  *%rax
  401012:	48 83 c4 08          	add    $0x8,%rsp
  401016:	c3                   	retq   

Disassembly of section .plt:

0000000000401020 <.plt>:
  401020:	ff 35 e2 5f 00 00    	pushq  0x5fe2(%rip)        # 407008 <_GLOBAL_OFFSET_TABLE_+0x8>
  401026:	ff 25 e4 5f 00 00    	jmpq   *0x5fe4(%rip)        # 407010 <_GLOBAL_OFFSET_TABLE_+0x10>
  40102c:	0f 1f 40 00          	nopl   0x0(%rax)

0000000000401030 <strcasecmp@plt>:
  401030:	ff 25 e2 5f 00 00    	jmpq   *0x5fe2(%rip)        # 407018 <strcasecmp@GLIBC_2.2.5>
  401036:	68 00 00 00 00       	pushq  $0x0
  40103b:	e9 e0 ff ff ff       	jmpq   401020 <.plt>

0000000000401040 <__errno_location@plt>:
  401040:	ff 25 da 5f 00 00    	jmpq   *0x5fda(%rip)        # 407020 <__errno_location@GLIBC_2.2.5>
  401046:	68 01 00 00 00       	pushq  $0x1
  40104b:	e9 d0 ff ff ff       	jmpq   401020 <.plt>

0000000000401050 <srandom@plt>:
  401050:	ff 25 d2 5f 00 00    	jmpq   *0x5fd2(%rip)        # 407028 <srandom@GLIBC_2.2.5>
  401056:	68 02 00 00 00       	pushq  $0x2
  40105b:	e9 c0 ff ff ff       	jmpq   401020 <.plt>

0000000000401060 <strncmp@plt>:
  401060:	ff 25 ca 5f 00 00    	jmpq   *0x5fca(%rip)        # 407030 <strncmp@GLIBC_2.2.5>
  401066:	68 03 00 00 00       	pushq  $0x3
  40106b:	e9 b0 ff ff ff       	jmpq   401020 <.plt>

0000000000401070 <strcpy@plt>:
  401070:	ff 25 c2 5f 00 00    	jmpq   *0x5fc2(%rip)        # 407038 <strcpy@GLIBC_2.2.5>
  401076:	68 04 00 00 00       	pushq  $0x4
  40107b:	e9 a0 ff ff ff       	jmpq   401020 <.plt>

0000000000401080 <puts@plt>:
  401080:	ff 25 ba 5f 00 00    	jmpq   *0x5fba(%rip)        # 407040 <puts@GLIBC_2.2.5>
  401086:	68 05 00 00 00       	pushq  $0x5
  40108b:	e9 90 ff ff ff       	jmpq   401020 <.plt>

0000000000401090 <write@plt>:
  401090:	ff 25 b2 5f 00 00    	jmpq   *0x5fb2(%rip)        # 407048 <write@GLIBC_2.2.5>
  401096:	68 06 00 00 00       	pushq  $0x6
  40109b:	e9 80 ff ff ff       	jmpq   401020 <.plt>

00000000004010a0 <mmap@plt>:
  4010a0:	ff 25 aa 5f 00 00    	jmpq   *0x5faa(%rip)        # 407050 <mmap@GLIBC_2.2.5>
  4010a6:	68 07 00 00 00       	pushq  $0x7
  4010ab:	e9 70 ff ff ff       	jmpq   401020 <.plt>

00000000004010b0 <printf@plt>:
  4010b0:	ff 25 a2 5f 00 00    	jmpq   *0x5fa2(%rip)        # 407058 <printf@GLIBC_2.2.5>
  4010b6:	68 08 00 00 00       	pushq  $0x8
  4010bb:	e9 60 ff ff ff       	jmpq   401020 <.plt>

00000000004010c0 <memset@plt>:
  4010c0:	ff 25 9a 5f 00 00    	jmpq   *0x5f9a(%rip)        # 407060 <memset@GLIBC_2.2.5>
  4010c6:	68 09 00 00 00       	pushq  $0x9
  4010cb:	e9 50 ff ff ff       	jmpq   401020 <.plt>

00000000004010d0 <alarm@plt>:
  4010d0:	ff 25 92 5f 00 00    	jmpq   *0x5f92(%rip)        # 407068 <alarm@GLIBC_2.2.5>
  4010d6:	68 0a 00 00 00       	pushq  $0xa
  4010db:	e9 40 ff ff ff       	jmpq   401020 <.plt>

00000000004010e0 <close@plt>:
  4010e0:	ff 25 8a 5f 00 00    	jmpq   *0x5f8a(%rip)        # 407070 <close@GLIBC_2.2.5>
  4010e6:	68 0b 00 00 00       	pushq  $0xb
  4010eb:	e9 30 ff ff ff       	jmpq   401020 <.plt>

00000000004010f0 <read@plt>:
  4010f0:	ff 25 82 5f 00 00    	jmpq   *0x5f82(%rip)        # 407078 <read@GLIBC_2.2.5>
  4010f6:	68 0c 00 00 00       	pushq  $0xc
  4010fb:	e9 20 ff ff ff       	jmpq   401020 <.plt>

0000000000401100 <signal@plt>:
  401100:	ff 25 7a 5f 00 00    	jmpq   *0x5f7a(%rip)        # 407080 <signal@GLIBC_2.2.5>
  401106:	68 0d 00 00 00       	pushq  $0xd
  40110b:	e9 10 ff ff ff       	jmpq   401020 <.plt>

0000000000401110 <gethostbyname@plt>:
  401110:	ff 25 72 5f 00 00    	jmpq   *0x5f72(%rip)        # 407088 <gethostbyname@GLIBC_2.2.5>
  401116:	68 0e 00 00 00       	pushq  $0xe
  40111b:	e9 00 ff ff ff       	jmpq   401020 <.plt>

0000000000401120 <fprintf@plt>:
  401120:	ff 25 6a 5f 00 00    	jmpq   *0x5f6a(%rip)        # 407090 <fprintf@GLIBC_2.2.5>
  401126:	68 0f 00 00 00       	pushq  $0xf
  40112b:	e9 f0 fe ff ff       	jmpq   401020 <.plt>

0000000000401130 <strtol@plt>:
  401130:	ff 25 62 5f 00 00    	jmpq   *0x5f62(%rip)        # 407098 <strtol@GLIBC_2.2.5>
  401136:	68 10 00 00 00       	pushq  $0x10
  40113b:	e9 e0 fe ff ff       	jmpq   401020 <.plt>

0000000000401140 <memcpy@plt>:
  401140:	ff 25 5a 5f 00 00    	jmpq   *0x5f5a(%rip)        # 4070a0 <memcpy@GLIBC_2.14>
  401146:	68 11 00 00 00       	pushq  $0x11
  40114b:	e9 d0 fe ff ff       	jmpq   401020 <.plt>

0000000000401150 <time@plt>:
  401150:	ff 25 52 5f 00 00    	jmpq   *0x5f52(%rip)        # 4070a8 <time@GLIBC_2.2.5>
  401156:	68 12 00 00 00       	pushq  $0x12
  40115b:	e9 c0 fe ff ff       	jmpq   401020 <.plt>

0000000000401160 <random@plt>:
  401160:	ff 25 4a 5f 00 00    	jmpq   *0x5f4a(%rip)        # 4070b0 <random@GLIBC_2.2.5>
  401166:	68 13 00 00 00       	pushq  $0x13
  40116b:	e9 b0 fe ff ff       	jmpq   401020 <.plt>

0000000000401170 <__isoc99_sscanf@plt>:
  401170:	ff 25 42 5f 00 00    	jmpq   *0x5f42(%rip)        # 4070b8 <__isoc99_sscanf@GLIBC_2.7>
  401176:	68 14 00 00 00       	pushq  $0x14
  40117b:	e9 a0 fe ff ff       	jmpq   401020 <.plt>

0000000000401180 <munmap@plt>:
  401180:	ff 25 3a 5f 00 00    	jmpq   *0x5f3a(%rip)        # 4070c0 <munmap@GLIBC_2.2.5>
  401186:	68 15 00 00 00       	pushq  $0x15
  40118b:	e9 90 fe ff ff       	jmpq   401020 <.plt>

0000000000401190 <memmove@plt>:
  401190:	ff 25 32 5f 00 00    	jmpq   *0x5f32(%rip)        # 4070c8 <memmove@GLIBC_2.2.5>
  401196:	68 16 00 00 00       	pushq  $0x16
  40119b:	e9 80 fe ff ff       	jmpq   401020 <.plt>

00000000004011a0 <fopen@plt>:
  4011a0:	ff 25 2a 5f 00 00    	jmpq   *0x5f2a(%rip)        # 4070d0 <fopen@GLIBC_2.2.5>
  4011a6:	68 17 00 00 00       	pushq  $0x17
  4011ab:	e9 70 fe ff ff       	jmpq   401020 <.plt>

00000000004011b0 <getopt@plt>:
  4011b0:	ff 25 22 5f 00 00    	jmpq   *0x5f22(%rip)        # 4070d8 <getopt@GLIBC_2.2.5>
  4011b6:	68 18 00 00 00       	pushq  $0x18
  4011bb:	e9 60 fe ff ff       	jmpq   401020 <.plt>

00000000004011c0 <strtoul@plt>:
  4011c0:	ff 25 1a 5f 00 00    	jmpq   *0x5f1a(%rip)        # 4070e0 <strtoul@GLIBC_2.2.5>
  4011c6:	68 19 00 00 00       	pushq  $0x19
  4011cb:	e9 50 fe ff ff       	jmpq   401020 <.plt>

00000000004011d0 <gethostname@plt>:
  4011d0:	ff 25 12 5f 00 00    	jmpq   *0x5f12(%rip)        # 4070e8 <gethostname@GLIBC_2.2.5>
  4011d6:	68 1a 00 00 00       	pushq  $0x1a
  4011db:	e9 40 fe ff ff       	jmpq   401020 <.plt>

00000000004011e0 <sprintf@plt>:
  4011e0:	ff 25 0a 5f 00 00    	jmpq   *0x5f0a(%rip)        # 4070f0 <sprintf@GLIBC_2.2.5>
  4011e6:	68 1b 00 00 00       	pushq  $0x1b
  4011eb:	e9 30 fe ff ff       	jmpq   401020 <.plt>

00000000004011f0 <exit@plt>:
  4011f0:	ff 25 02 5f 00 00    	jmpq   *0x5f02(%rip)        # 4070f8 <exit@GLIBC_2.2.5>
  4011f6:	68 1c 00 00 00       	pushq  $0x1c
  4011fb:	e9 20 fe ff ff       	jmpq   401020 <.plt>

0000000000401200 <connect@plt>:
  401200:	ff 25 fa 5e 00 00    	jmpq   *0x5efa(%rip)        # 407100 <connect@GLIBC_2.2.5>
  401206:	68 1d 00 00 00       	pushq  $0x1d
  40120b:	e9 10 fe ff ff       	jmpq   401020 <.plt>

0000000000401210 <getc@plt>:
  401210:	ff 25 f2 5e 00 00    	jmpq   *0x5ef2(%rip)        # 407108 <getc@GLIBC_2.2.5>
  401216:	68 1e 00 00 00       	pushq  $0x1e
  40121b:	e9 00 fe ff ff       	jmpq   401020 <.plt>

0000000000401220 <socket@plt>:
  401220:	ff 25 ea 5e 00 00    	jmpq   *0x5eea(%rip)        # 407110 <socket@GLIBC_2.2.5>
  401226:	68 1f 00 00 00       	pushq  $0x1f
  40122b:	e9 f0 fd ff ff       	jmpq   401020 <.plt>

Disassembly of section .text:

0000000000401230 <_start>:
  401230:	31 ed                	xor    %ebp,%ebp
  401232:	49 89 d1             	mov    %rdx,%r9
  401235:	5e                   	pop    %rsi
  401236:	48 89 e2             	mov    %rsp,%rdx
  401239:	48 83 e4 f0          	and    $0xfffffffffffffff0,%rsp
  40123d:	50                   	push   %rax
  40123e:	54                   	push   %rsp
  40123f:	49 c7 c0 d0 30 40 00 	mov    $0x4030d0,%r8
  401246:	48 c7 c1 70 30 40 00 	mov    $0x403070,%rcx
  40124d:	48 c7 c7 c9 14 40 00 	mov    $0x4014c9,%rdi
  401254:	ff 15 96 5d 00 00    	callq  *0x5d96(%rip)        # 406ff0 <__libc_start_main@GLIBC_2.2.5>
  40125a:	f4                   	hlt    
  40125b:	0f 1f 44 00 00       	nopl   0x0(%rax,%rax,1)

0000000000401260 <_dl_relocate_static_pie>:
  401260:	c3                   	retq   
  401261:	66 2e 0f 1f 84 00 00 	nopw   %cs:0x0(%rax,%rax,1)
  401268:	00 00 00 
  40126b:	0f 1f 44 00 00       	nopl   0x0(%rax,%rax,1)

0000000000401270 <deregister_tm_clones>:
  401270:	b8 90 74 40 00       	mov    $0x407490,%eax
  401275:	48 3d 90 74 40 00    	cmp    $0x407490,%rax
  40127b:	74 13                	je     401290 <deregister_tm_clones+0x20>
  40127d:	b8 00 00 00 00       	mov    $0x0,%eax
  401282:	48 85 c0             	test   %rax,%rax
  401285:	74 09                	je     401290 <deregister_tm_clones+0x20>
  401287:	bf 90 74 40 00       	mov    $0x407490,%edi
  40128c:	ff e0                	jmpq   *%rax
  40128e:	66 90                	xchg   %ax,%ax
  401290:	c3                   	retq   
  401291:	66 66 2e 0f 1f 84 00 	data16 nopw %cs:0x0(%rax,%rax,1)
  401298:	00 00 00 00 
  40129c:	0f 1f 40 00          	nopl   0x0(%rax)

00000000004012a0 <register_tm_clones>:
  4012a0:	be 90 74 40 00       	mov    $0x407490,%esi
  4012a5:	48 81 ee 90 74 40 00 	sub    $0x407490,%rsi
  4012ac:	48 c1 fe 03          	sar    $0x3,%rsi
  4012b0:	48 89 f0             	mov    %rsi,%rax
  4012b3:	48 c1 e8 3f          	shr    $0x3f,%rax
  4012b7:	48 01 c6             	add    %rax,%rsi
  4012ba:	48 d1 fe             	sar    %rsi
  4012bd:	74 11                	je     4012d0 <register_tm_clones+0x30>
  4012bf:	b8 00 00 00 00       	mov    $0x0,%eax
  4012c4:	48 85 c0             	test   %rax,%rax
  4012c7:	74 07                	je     4012d0 <register_tm_clones+0x30>
  4012c9:	bf 90 74 40 00       	mov    $0x407490,%edi
  4012ce:	ff e0                	jmpq   *%rax
  4012d0:	c3                   	retq   
  4012d1:	66 66 2e 0f 1f 84 00 	data16 nopw %cs:0x0(%rax,%rax,1)
  4012d8:	00 00 00 00 
  4012dc:	0f 1f 40 00          	nopl   0x0(%rax)

00000000004012e0 <__do_global_dtors_aux>:
  4012e0:	80 3d e1 61 00 00 00 	cmpb   $0x0,0x61e1(%rip)        # 4074c8 <completed.7325>
  4012e7:	75 17                	jne    401300 <__do_global_dtors_aux+0x20>
  4012e9:	55                   	push   %rbp
  4012ea:	48 89 e5             	mov    %rsp,%rbp
  4012ed:	e8 7e ff ff ff       	callq  401270 <deregister_tm_clones>
  4012f2:	c6 05 cf 61 00 00 01 	movb   $0x1,0x61cf(%rip)        # 4074c8 <completed.7325>
  4012f9:	5d                   	pop    %rbp
  4012fa:	c3                   	retq   
  4012fb:	0f 1f 44 00 00       	nopl   0x0(%rax,%rax,1)
  401300:	c3                   	retq   
  401301:	66 66 2e 0f 1f 84 00 	data16 nopw %cs:0x0(%rax,%rax,1)
  401308:	00 00 00 00 
  40130c:	0f 1f 40 00          	nopl   0x0(%rax)

0000000000401310 <frame_dummy>:
  401310:	eb 8e                	jmp    4012a0 <register_tm_clones>

0000000000401312 <usage>:
  401312:	48 83 ec 08          	sub    $0x8,%rsp
  401316:	48 89 fe             	mov    %rdi,%rsi
  401319:	83 3d e8 61 00 00 00 	cmpl   $0x0,0x61e8(%rip)        # 407508 <is_checker>
  401320:	74 4b                	je     40136d <usage+0x5b>
  401322:	48 8d 3d df 2c 00 00 	lea    0x2cdf(%rip),%rdi        # 404008 <_IO_stdin_used+0x8>
  401329:	b8 00 00 00 00       	mov    $0x0,%eax
  40132e:	e8 7d fd ff ff       	callq  4010b0 <printf@plt>
  401333:	48 8d 3d 06 2d 00 00 	lea    0x2d06(%rip),%rdi        # 404040 <_IO_stdin_used+0x40>
  40133a:	e8 41 fd ff ff       	callq  401080 <puts@plt>
  40133f:	48 8d 3d 32 2e 00 00 	lea    0x2e32(%rip),%rdi        # 404178 <_IO_stdin_used+0x178>
  401346:	e8 35 fd ff ff       	callq  401080 <puts@plt>
  40134b:	48 8d 3d 16 2d 00 00 	lea    0x2d16(%rip),%rdi        # 404068 <_IO_stdin_used+0x68>
  401352:	e8 29 fd ff ff       	callq  401080 <puts@plt>
  401357:	48 8d 3d 34 2e 00 00 	lea    0x2e34(%rip),%rdi        # 404192 <_IO_stdin_used+0x192>
  40135e:	e8 1d fd ff ff       	callq  401080 <puts@plt>
  401363:	bf 00 00 00 00       	mov    $0x0,%edi
  401368:	e8 83 fe ff ff       	callq  4011f0 <exit@plt>
  40136d:	48 8d 3d 3a 2e 00 00 	lea    0x2e3a(%rip),%rdi        # 4041ae <_IO_stdin_used+0x1ae>
  401374:	b8 00 00 00 00       	mov    $0x0,%eax
  401379:	e8 32 fd ff ff       	callq  4010b0 <printf@plt>
  40137e:	48 8d 3d 0b 2d 00 00 	lea    0x2d0b(%rip),%rdi        # 404090 <_IO_stdin_used+0x90>
  401385:	e8 f6 fc ff ff       	callq  401080 <puts@plt>
  40138a:	48 8d 3d 27 2d 00 00 	lea    0x2d27(%rip),%rdi        # 4040b8 <_IO_stdin_used+0xb8>
  401391:	e8 ea fc ff ff       	callq  401080 <puts@plt>
  401396:	48 8d 3d 2f 2e 00 00 	lea    0x2e2f(%rip),%rdi        # 4041cc <_IO_stdin_used+0x1cc>
  40139d:	e8 de fc ff ff       	callq  401080 <puts@plt>
  4013a2:	eb bf                	jmp    401363 <usage+0x51>

00000000004013a4 <initialize_target>:
  4013a4:	55                   	push   %rbp
  4013a5:	53                   	push   %rbx
  4013a6:	48 81 ec 08 21 00 00 	sub    $0x2108,%rsp
  4013ad:	89 f5                	mov    %esi,%ebp
  4013af:	89 3d 43 61 00 00    	mov    %edi,0x6143(%rip)        # 4074f8 <check_level>
  4013b5:	8b 3d 75 5d 00 00    	mov    0x5d75(%rip),%edi        # 407130 <target_id>
  4013bb:	e8 85 1c 00 00       	callq  403045 <gencookie>
  4013c0:	89 05 3e 61 00 00    	mov    %eax,0x613e(%rip)        # 407504 <cookie>
  4013c6:	89 c7                	mov    %eax,%edi
  4013c8:	e8 78 1c 00 00       	callq  403045 <gencookie>
  4013cd:	89 05 2d 61 00 00    	mov    %eax,0x612d(%rip)        # 407500 <authkey>
  4013d3:	8b 05 57 5d 00 00    	mov    0x5d57(%rip),%eax        # 407130 <target_id>
  4013d9:	8d 78 01             	lea    0x1(%rax),%edi
  4013dc:	e8 6f fc ff ff       	callq  401050 <srandom@plt>
  4013e1:	e8 7a fd ff ff       	callq  401160 <random@plt>
  4013e6:	89 c7                	mov    %eax,%edi
  4013e8:	e8 b1 02 00 00       	callq  40169e <scramble>
  4013ed:	89 c3                	mov    %eax,%ebx
  4013ef:	85 ed                	test   %ebp,%ebp
  4013f1:	75 3d                	jne    401430 <initialize_target+0x8c>
  4013f3:	b8 00 00 00 00       	mov    $0x0,%eax
  4013f8:	01 d8                	add    %ebx,%eax
  4013fa:	0f b7 c0             	movzwl %ax,%eax
  4013fd:	8d 04 c5 00 01 00 00 	lea    0x100(,%rax,8),%eax
  401404:	89 c0                	mov    %eax,%eax
  401406:	48 89 05 73 60 00 00 	mov    %rax,0x6073(%rip)        # 407480 <buf_offset>
  40140d:	c6 05 14 6d 00 00 63 	movb   $0x63,0x6d14(%rip)        # 408128 <target_prefix>
  401414:	83 3d 6d 60 00 00 00 	cmpl   $0x0,0x606d(%rip)        # 407488 <notify>
  40141b:	74 09                	je     401426 <initialize_target+0x82>
  40141d:	83 3d e4 60 00 00 00 	cmpl   $0x0,0x60e4(%rip)        # 407508 <is_checker>
  401424:	74 22                	je     401448 <initialize_target+0xa4>
  401426:	48 81 c4 08 21 00 00 	add    $0x2108,%rsp
  40142d:	5b                   	pop    %rbx
  40142e:	5d                   	pop    %rbp
  40142f:	c3                   	retq   
  401430:	bf 00 00 00 00       	mov    $0x0,%edi
  401435:	e8 16 fd ff ff       	callq  401150 <time@plt>
  40143a:	89 c7                	mov    %eax,%edi
  40143c:	e8 0f fc ff ff       	callq  401050 <srandom@plt>
  401441:	e8 1a fd ff ff       	callq  401160 <random@plt>
  401446:	eb b0                	jmp    4013f8 <initialize_target+0x54>
  401448:	48 89 e7             	mov    %rsp,%rdi
  40144b:	be 00 01 00 00       	mov    $0x100,%esi
  401450:	e8 7b fd ff ff       	callq  4011d0 <gethostname@plt>
  401455:	89 c3                	mov    %eax,%ebx
  401457:	85 c0                	test   %eax,%eax
  401459:	75 24                	jne    40147f <initialize_target+0xdb>
  40145b:	48 63 c3             	movslq %ebx,%rax
  40145e:	48 8d 15 fb 5c 00 00 	lea    0x5cfb(%rip),%rdx        # 407160 <host_table>
  401465:	48 8b 3c c2          	mov    (%rdx,%rax,8),%rdi
  401469:	48 85 ff             	test   %rdi,%rdi
  40146c:	74 27                	je     401495 <initialize_target+0xf1>
  40146e:	48 89 e6             	mov    %rsp,%rsi
  401471:	e8 ba fb ff ff       	callq  401030 <strcasecmp@plt>
  401476:	85 c0                	test   %eax,%eax
  401478:	74 1b                	je     401495 <initialize_target+0xf1>
  40147a:	83 c3 01             	add    $0x1,%ebx
  40147d:	eb dc                	jmp    40145b <initialize_target+0xb7>
  40147f:	48 8d 3d 62 2c 00 00 	lea    0x2c62(%rip),%rdi        # 4040e8 <_IO_stdin_used+0xe8>
  401486:	e8 f5 fb ff ff       	callq  401080 <puts@plt>
  40148b:	bf 08 00 00 00       	mov    $0x8,%edi
  401490:	e8 5b fd ff ff       	callq  4011f0 <exit@plt>
  401495:	48 8d bc 24 00 01 00 	lea    0x100(%rsp),%rdi
  40149c:	00 
  40149d:	e8 08 19 00 00       	callq  402daa <init_driver>
  4014a2:	85 c0                	test   %eax,%eax
  4014a4:	79 80                	jns    401426 <initialize_target+0x82>
  4014a6:	48 8d b4 24 00 01 00 	lea    0x100(%rsp),%rsi
  4014ad:	00 
  4014ae:	48 8d 3d 6b 2c 00 00 	lea    0x2c6b(%rip),%rdi        # 404120 <_IO_stdin_used+0x120>
  4014b5:	b8 00 00 00 00       	mov    $0x0,%eax
  4014ba:	e8 f1 fb ff ff       	callq  4010b0 <printf@plt>
  4014bf:	bf 08 00 00 00       	mov    $0x8,%edi
  4014c4:	e8 27 fd ff ff       	callq  4011f0 <exit@plt>

00000000004014c9 <main>:
  4014c9:	41 56                	push   %r14
  4014cb:	41 55                	push   %r13
  4014cd:	41 54                	push   %r12
  4014cf:	55                   	push   %rbp
  4014d0:	53                   	push   %rbx
  4014d1:	89 fd                	mov    %edi,%ebp
  4014d3:	48 89 f3             	mov    %rsi,%rbx
  4014d6:	48 c7 c6 7c 21 40 00 	mov    $0x40217c,%rsi
  4014dd:	bf 0b 00 00 00       	mov    $0xb,%edi
  4014e2:	e8 19 fc ff ff       	callq  401100 <signal@plt>
  4014e7:	48 c7 c6 28 21 40 00 	mov    $0x402128,%rsi
  4014ee:	bf 07 00 00 00       	mov    $0x7,%edi
  4014f3:	e8 08 fc ff ff       	callq  401100 <signal@plt>
  4014f8:	48 c7 c6 d0 21 40 00 	mov    $0x4021d0,%rsi
  4014ff:	bf 04 00 00 00       	mov    $0x4,%edi
  401504:	e8 f7 fb ff ff       	callq  401100 <signal@plt>
  401509:	83 3d f8 5f 00 00 00 	cmpl   $0x0,0x5ff8(%rip)        # 407508 <is_checker>
  401510:	75 26                	jne    401538 <main+0x6f>
  401512:	4c 8d 25 d4 2c 00 00 	lea    0x2cd4(%rip),%r12        # 4041ed <_IO_stdin_used+0x1ed>
  401519:	48 8b 05 80 5f 00 00 	mov    0x5f80(%rip),%rax        # 4074a0 <stdin@@GLIBC_2.2.5>
  401520:	48 89 05 c9 5f 00 00 	mov    %rax,0x5fc9(%rip)        # 4074f0 <infile>
  401527:	41 bd 00 00 00 00    	mov    $0x0,%r13d
  40152d:	41 be 00 00 00 00    	mov    $0x0,%r14d
  401533:	e9 88 00 00 00       	jmpq   4015c0 <main+0xf7>
  401538:	48 c7 c6 24 22 40 00 	mov    $0x402224,%rsi
  40153f:	bf 0e 00 00 00       	mov    $0xe,%edi
  401544:	e8 b7 fb ff ff       	callq  401100 <signal@plt>
  401549:	bf 05 00 00 00       	mov    $0x5,%edi
  40154e:	e8 7d fb ff ff       	callq  4010d0 <alarm@plt>
  401553:	4c 8d 25 8b 2c 00 00 	lea    0x2c8b(%rip),%r12        # 4041e5 <_IO_stdin_used+0x1e5>
  40155a:	eb bd                	jmp    401519 <main+0x50>
  40155c:	48 8b 3b             	mov    (%rbx),%rdi
  40155f:	e8 ae fd ff ff       	callq  401312 <usage>
  401564:	48 8d 35 0a 2f 00 00 	lea    0x2f0a(%rip),%rsi        # 404475 <_IO_stdin_used+0x475>
  40156b:	48 8b 3d 36 5f 00 00 	mov    0x5f36(%rip),%rdi        # 4074a8 <optarg@@GLIBC_2.2.5>
  401572:	e8 29 fc ff ff       	callq  4011a0 <fopen@plt>
  401577:	48 89 05 72 5f 00 00 	mov    %rax,0x5f72(%rip)        # 4074f0 <infile>
  40157e:	48 85 c0             	test   %rax,%rax
  401581:	75 3d                	jne    4015c0 <main+0xf7>
  401583:	48 8b 15 1e 5f 00 00 	mov    0x5f1e(%rip),%rdx        # 4074a8 <optarg@@GLIBC_2.2.5>
  40158a:	48 8d 35 61 2c 00 00 	lea    0x2c61(%rip),%rsi        # 4041f2 <_IO_stdin_used+0x1f2>
  401591:	48 8b 3d 28 5f 00 00 	mov    0x5f28(%rip),%rdi        # 4074c0 <stderr@@GLIBC_2.2.5>
  401598:	e8 83 fb ff ff       	callq  401120 <fprintf@plt>
  40159d:	b8 01 00 00 00       	mov    $0x1,%eax
  4015a2:	e9 ce 00 00 00       	jmpq   401675 <main+0x1ac>
  4015a7:	ba 10 00 00 00       	mov    $0x10,%edx
  4015ac:	be 00 00 00 00       	mov    $0x0,%esi
  4015b1:	48 8b 3d f0 5e 00 00 	mov    0x5ef0(%rip),%rdi        # 4074a8 <optarg@@GLIBC_2.2.5>
  4015b8:	e8 03 fc ff ff       	callq  4011c0 <strtoul@plt>
  4015bd:	41 89 c6             	mov    %eax,%r14d
  4015c0:	4c 89 e2             	mov    %r12,%rdx
  4015c3:	48 89 de             	mov    %rbx,%rsi
  4015c6:	89 ef                	mov    %ebp,%edi
  4015c8:	e8 e3 fb ff ff       	callq  4011b0 <getopt@plt>
  4015cd:	3c ff                	cmp    $0xff,%al
  4015cf:	74 5d                	je     40162e <main+0x165>
  4015d1:	0f be f0             	movsbl %al,%esi
  4015d4:	83 e8 61             	sub    $0x61,%eax
  4015d7:	3c 10                	cmp    $0x10,%al
  4015d9:	77 3a                	ja     401615 <main+0x14c>
  4015db:	0f b6 c0             	movzbl %al,%eax
  4015de:	48 8d 15 4b 2c 00 00 	lea    0x2c4b(%rip),%rdx        # 404230 <_IO_stdin_used+0x230>
  4015e5:	48 63 04 82          	movslq (%rdx,%rax,4),%rax
  4015e9:	48 01 d0             	add    %rdx,%rax
  4015ec:	ff e0                	jmpq   *%rax
  4015ee:	ba 0a 00 00 00       	mov    $0xa,%edx
  4015f3:	be 00 00 00 00       	mov    $0x0,%esi
  4015f8:	48 8b 3d a9 5e 00 00 	mov    0x5ea9(%rip),%rdi        # 4074a8 <optarg@@GLIBC_2.2.5>
  4015ff:	e8 2c fb ff ff       	callq  401130 <strtol@plt>
  401604:	41 89 c5             	mov    %eax,%r13d
  401607:	eb b7                	jmp    4015c0 <main+0xf7>
  401609:	c7 05 75 5e 00 00 00 	movl   $0x0,0x5e75(%rip)        # 407488 <notify>
  401610:	00 00 00 
  401613:	eb ab                	jmp    4015c0 <main+0xf7>
  401615:	48 8d 3d f3 2b 00 00 	lea    0x2bf3(%rip),%rdi        # 40420f <_IO_stdin_used+0x20f>
  40161c:	b8 00 00 00 00       	mov    $0x0,%eax
  401621:	e8 8a fa ff ff       	callq  4010b0 <printf@plt>
  401626:	48 8b 3b             	mov    (%rbx),%rdi
  401629:	e8 e4 fc ff ff       	callq  401312 <usage>
  40162e:	be 00 00 00 00       	mov    $0x0,%esi
  401633:	44 89 ef             	mov    %r13d,%edi
  401636:	e8 69 fd ff ff       	callq  4013a4 <initialize_target>
  40163b:	83 3d c6 5e 00 00 00 	cmpl   $0x0,0x5ec6(%rip)        # 407508 <is_checker>
  401642:	74 09                	je     40164d <main+0x184>
  401644:	44 39 35 b5 5e 00 00 	cmp    %r14d,0x5eb5(%rip)        # 407500 <authkey>
  40164b:	75 31                	jne    40167e <main+0x1b5>
  40164d:	8b 35 b1 5e 00 00    	mov    0x5eb1(%rip),%esi        # 407504 <cookie>
  401653:	48 8d 3d c8 2b 00 00 	lea    0x2bc8(%rip),%rdi        # 404222 <_IO_stdin_used+0x222>
  40165a:	b8 00 00 00 00       	mov    $0x0,%eax
  40165f:	e8 4c fa ff ff       	callq  4010b0 <printf@plt>
  401664:	48 8b 3d 15 5e 00 00 	mov    0x5e15(%rip),%rdi        # 407480 <buf_offset>
  40166b:	e8 8f 0c 00 00       	callq  4022ff <stable_launch>
  401670:	b8 00 00 00 00       	mov    $0x0,%eax
  401675:	5b                   	pop    %rbx
  401676:	5d                   	pop    %rbp
  401677:	41 5c                	pop    %r12
  401679:	41 5d                	pop    %r13
  40167b:	41 5e                	pop    %r14
  40167d:	c3                   	retq   
  40167e:	44 89 f6             	mov    %r14d,%esi
  401681:	48 8d 3d c0 2a 00 00 	lea    0x2ac0(%rip),%rdi        # 404148 <_IO_stdin_used+0x148>
  401688:	b8 00 00 00 00       	mov    $0x0,%eax
  40168d:	e8 1e fa ff ff       	callq  4010b0 <printf@plt>
  401692:	b8 00 00 00 00       	mov    $0x0,%eax
  401697:	e8 60 07 00 00       	callq  401dfc <check_fail>
  40169c:	eb af                	jmp    40164d <main+0x184>

000000000040169e <scramble>:
  40169e:	b8 00 00 00 00       	mov    $0x0,%eax
  4016a3:	83 f8 09             	cmp    $0x9,%eax
  4016a6:	77 13                	ja     4016bb <scramble+0x1d>
  4016a8:	69 d0 d4 2f 00 00    	imul   $0x2fd4,%eax,%edx
  4016ae:	01 fa                	add    %edi,%edx
  4016b0:	89 c1                	mov    %eax,%ecx
  4016b2:	89 54 8c d0          	mov    %edx,-0x30(%rsp,%rcx,4)
  4016b6:	83 c0 01             	add    $0x1,%eax
  4016b9:	eb e8                	jmp    4016a3 <scramble+0x5>
  4016bb:	8b 44 24 d0          	mov    -0x30(%rsp),%eax
  4016bf:	69 c0 f6 13 00 00    	imul   $0x13f6,%eax,%eax
  4016c5:	89 44 24 d0          	mov    %eax,-0x30(%rsp)
  4016c9:	8b 44 24 d0          	mov    -0x30(%rsp),%eax
  4016cd:	69 c0 b5 d3 00 00    	imul   $0xd3b5,%eax,%eax
  4016d3:	89 44 24 d0          	mov    %eax,-0x30(%rsp)
  4016d7:	8b 44 24 d8          	mov    -0x28(%rsp),%eax
  4016db:	69 c0 b5 e2 00 00    	imul   $0xe2b5,%eax,%eax
  4016e1:	89 44 24 d8          	mov    %eax,-0x28(%rsp)
  4016e5:	8b 44 24 d0          	mov    -0x30(%rsp),%eax
  4016e9:	69 c0 d1 ba 00 00    	imul   $0xbad1,%eax,%eax
  4016ef:	89 44 24 d0          	mov    %eax,-0x30(%rsp)
  4016f3:	8b 44 24 e8          	mov    -0x18(%rsp),%eax
  4016f7:	69 c0 3f 54 00 00    	imul   $0x543f,%eax,%eax
  4016fd:	89 44 24 e8          	mov    %eax,-0x18(%rsp)
  401701:	8b 44 24 e8          	mov    -0x18(%rsp),%eax
  401705:	69 c0 2e 53 00 00    	imul   $0x532e,%eax,%eax
  40170b:	89 44 24 e8          	mov    %eax,-0x18(%rsp)
  40170f:	8b 44 24 dc          	mov    -0x24(%rsp),%eax
  401713:	69 c0 bd 28 00 00    	imul   $0x28bd,%eax,%eax
  401719:	89 44 24 dc          	mov    %eax,-0x24(%rsp)
  40171d:	8b 44 24 d4          	mov    -0x2c(%rsp),%eax
  401721:	69 c0 20 96 00 00    	imul   $0x9620,%eax,%eax
  401727:	89 44 24 d4          	mov    %eax,-0x2c(%rsp)
  40172b:	8b 44 24 f0          	mov    -0x10(%rsp),%eax
  40172f:	69 c0 67 90 00 00    	imul   $0x9067,%eax,%eax
  401735:	89 44 24 f0          	mov    %eax,-0x10(%rsp)
  401739:	8b 44 24 d4          	mov    -0x2c(%rsp),%eax
  40173d:	69 c0 3c c1 00 00    	imul   $0xc13c,%eax,%eax
  401743:	89 44 24 d4          	mov    %eax,-0x2c(%rsp)
  401747:	8b 44 24 ec          	mov    -0x14(%rsp),%eax
  40174b:	69 c0 dc 0a 00 00    	imul   $0xadc,%eax,%eax
  401751:	89 44 24 ec          	mov    %eax,-0x14(%rsp)
  401755:	8b 44 24 e4          	mov    -0x1c(%rsp),%eax
  401759:	69 c0 97 65 00 00    	imul   $0x6597,%eax,%eax
  40175f:	89 44 24 e4          	mov    %eax,-0x1c(%rsp)
  401763:	8b 44 24 d0          	mov    -0x30(%rsp),%eax
  401767:	69 c0 41 3e 00 00    	imul   $0x3e41,%eax,%eax
  40176d:	89 44 24 d0          	mov    %eax,-0x30(%rsp)
  401771:	8b 44 24 d4          	mov    -0x2c(%rsp),%eax
  401775:	69 c0 01 f1 00 00    	imul   $0xf101,%eax,%eax
  40177b:	89 44 24 d4          	mov    %eax,-0x2c(%rsp)
  40177f:	8b 44 24 f0          	mov    -0x10(%rsp),%eax
  401783:	69 c0 e7 44 00 00    	imul   $0x44e7,%eax,%eax
  401789:	89 44 24 f0          	mov    %eax,-0x10(%rsp)
  40178d:	8b 44 24 ec          	mov    -0x14(%rsp),%eax
  401791:	69 c0 c7 1a 00 00    	imul   $0x1ac7,%eax,%eax
  401797:	89 44 24 ec          	mov    %eax,-0x14(%rsp)
  40179b:	8b 44 24 e4          	mov    -0x1c(%rsp),%eax
  40179f:	69 c0 88 dc 00 00    	imul   $0xdc88,%eax,%eax
  4017a5:	89 44 24 e4          	mov    %eax,-0x1c(%rsp)
  4017a9:	8b 44 24 e8          	mov    -0x18(%rsp),%eax
  4017ad:	69 c0 93 21 00 00    	imul   $0x2193,%eax,%eax
  4017b3:	89 44 24 e8          	mov    %eax,-0x18(%rsp)
  4017b7:	8b 44 24 d0          	mov    -0x30(%rsp),%eax
  4017bb:	69 c0 ab df 00 00    	imul   $0xdfab,%eax,%eax
  4017c1:	89 44 24 d0          	mov    %eax,-0x30(%rsp)
  4017c5:	8b 44 24 e8          	mov    -0x18(%rsp),%eax
  4017c9:	69 c0 2e 64 00 00    	imul   $0x642e,%eax,%eax
  4017cf:	89 44 24 e8          	mov    %eax,-0x18(%rsp)
  4017d3:	8b 44 24 d0          	mov    -0x30(%rsp),%eax
  4017d7:	69 c0 62 fc 00 00    	imul   $0xfc62,%eax,%eax
  4017dd:	89 44 24 d0          	mov    %eax,-0x30(%rsp)
  4017e1:	8b 44 24 d0          	mov    -0x30(%rsp),%eax
  4017e5:	69 c0 d0 19 00 00    	imul   $0x19d0,%eax,%eax
  4017eb:	89 44 24 d0          	mov    %eax,-0x30(%rsp)
  4017ef:	8b 44 24 d8          	mov    -0x28(%rsp),%eax
  4017f3:	69 c0 d6 ec 00 00    	imul   $0xecd6,%eax,%eax
  4017f9:	89 44 24 d8          	mov    %eax,-0x28(%rsp)
  4017fd:	8b 44 24 ec          	mov    -0x14(%rsp),%eax
  401801:	69 c0 a3 3f 00 00    	imul   $0x3fa3,%eax,%eax
  401807:	89 44 24 ec          	mov    %eax,-0x14(%rsp)
  40180b:	8b 44 24 e4          	mov    -0x1c(%rsp),%eax
  40180f:	69 c0 f4 e7 00 00    	imul   $0xe7f4,%eax,%eax
  401815:	89 44 24 e4          	mov    %eax,-0x1c(%rsp)
  401819:	8b 44 24 f4          	mov    -0xc(%rsp),%eax
  40181d:	69 c0 9d 7c 00 00    	imul   $0x7c9d,%eax,%eax
  401823:	89 44 24 f4          	mov    %eax,-0xc(%rsp)
  401827:	8b 44 24 f0          	mov    -0x10(%rsp),%eax
  40182b:	69 c0 24 cc 00 00    	imul   $0xcc24,%eax,%eax
  401831:	89 44 24 f0          	mov    %eax,-0x10(%rsp)
  401835:	8b 44 24 e8          	mov    -0x18(%rsp),%eax
  401839:	69 c0 a8 97 00 00    	imul   $0x97a8,%eax,%eax
  40183f:	89 44 24 e8          	mov    %eax,-0x18(%rsp)
  401843:	8b 44 24 dc          	mov    -0x24(%rsp),%eax
  401847:	69 c0 50 c9 00 00    	imul   $0xc950,%eax,%eax
  40184d:	89 44 24 dc          	mov    %eax,-0x24(%rsp)
  401851:	8b 44 24 ec          	mov    -0x14(%rsp),%eax
  401855:	69 c0 59 f5 00 00    	imul   $0xf559,%eax,%eax
  40185b:	89 44 24 ec          	mov    %eax,-0x14(%rsp)
  40185f:	8b 44 24 e8          	mov    -0x18(%rsp),%eax
  401863:	69 c0 b6 ef 00 00    	imul   $0xefb6,%eax,%eax
  401869:	89 44 24 e8          	mov    %eax,-0x18(%rsp)
  40186d:	8b 44 24 e0          	mov    -0x20(%rsp),%eax
  401871:	69 c0 14 67 00 00    	imul   $0x6714,%eax,%eax
  401877:	89 44 24 e0          	mov    %eax,-0x20(%rsp)
  40187b:	8b 44 24 e4          	mov    -0x1c(%rsp),%eax
  40187f:	69 c0 9d fe 00 00    	imul   $0xfe9d,%eax,%eax
  401885:	89 44 24 e4          	mov    %eax,-0x1c(%rsp)
  401889:	8b 44 24 d8          	mov    -0x28(%rsp),%eax
  40188d:	69 c0 7c 8b 00 00    	imul   $0x8b7c,%eax,%eax
  401893:	89 44 24 d8          	mov    %eax,-0x28(%rsp)
  401897:	8b 44 24 d4          	mov    -0x2c(%rsp),%eax
  40189b:	69 c0 0b 65 00 00    	imul   $0x650b,%eax,%eax
  4018a1:	89 44 24 d4          	mov    %eax,-0x2c(%rsp)
  4018a5:	8b 44 24 e8          	mov    -0x18(%rsp),%eax
  4018a9:	69 c0 32 12 00 00    	imul   $0x1232,%eax,%eax
  4018af:	89 44 24 e8          	mov    %eax,-0x18(%rsp)
  4018b3:	8b 44 24 dc          	mov    -0x24(%rsp),%eax
  4018b7:	69 c0 07 a7 00 00    	imul   $0xa707,%eax,%eax
  4018bd:	89 44 24 dc          	mov    %eax,-0x24(%rsp)
  4018c1:	8b 44 24 d4          	mov    -0x2c(%rsp),%eax
  4018c5:	69 c0 8e 86 00 00    	imul   $0x868e,%eax,%eax
  4018cb:	89 44 24 d4          	mov    %eax,-0x2c(%rsp)
  4018cf:	8b 44 24 d4          	mov    -0x2c(%rsp),%eax
  4018d3:	69 c0 f3 db 00 00    	imul   $0xdbf3,%eax,%eax
  4018d9:	89 44 24 d4          	mov    %eax,-0x2c(%rsp)
  4018dd:	8b 44 24 f0          	mov    -0x10(%rsp),%eax
  4018e1:	69 c0 1b 11 00 00    	imul   $0x111b,%eax,%eax
  4018e7:	89 44 24 f0          	mov    %eax,-0x10(%rsp)
  4018eb:	8b 44 24 d8          	mov    -0x28(%rsp),%eax
  4018ef:	69 c0 10 c7 00 00    	imul   $0xc710,%eax,%eax
  4018f5:	89 44 24 d8          	mov    %eax,-0x28(%rsp)
  4018f9:	8b 44 24 d4          	mov    -0x2c(%rsp),%eax
  4018fd:	69 c0 b9 b6 00 00    	imul   $0xb6b9,%eax,%eax
  401903:	89 44 24 d4          	mov    %eax,-0x2c(%rsp)
  401907:	8b 44 24 dc          	mov    -0x24(%rsp),%eax
  40190b:	69 c0 ec 6f 00 00    	imul   $0x6fec,%eax,%eax
  401911:	89 44 24 dc          	mov    %eax,-0x24(%rsp)
  401915:	8b 44 24 f0          	mov    -0x10(%rsp),%eax
  401919:	69 c0 9b 9d 00 00    	imul   $0x9d9b,%eax,%eax
  40191f:	89 44 24 f0          	mov    %eax,-0x10(%rsp)
  401923:	8b 44 24 f0          	mov    -0x10(%rsp),%eax
  401927:	69 c0 0b d7 00 00    	imul   $0xd70b,%eax,%eax
  40192d:	89 44 24 f0          	mov    %eax,-0x10(%rsp)
  401931:	8b 44 24 dc          	mov    -0x24(%rsp),%eax
  401935:	69 c0 74 47 00 00    	imul   $0x4774,%eax,%eax
  40193b:	89 44 24 dc          	mov    %eax,-0x24(%rsp)
  40193f:	8b 44 24 d8          	mov    -0x28(%rsp),%eax
  401943:	69 c0 14 a3 00 00    	imul   $0xa314,%eax,%eax
  401949:	89 44 24 d8          	mov    %eax,-0x28(%rsp)
  40194d:	8b 44 24 d0          	mov    -0x30(%rsp),%eax
  401951:	69 c0 ff 92 00 00    	imul   $0x92ff,%eax,%eax
  401957:	89 44 24 d0          	mov    %eax,-0x30(%rsp)
  40195b:	8b 44 24 d8          	mov    -0x28(%rsp),%eax
  40195f:	69 c0 30 37 00 00    	imul   $0x3730,%eax,%eax
  401965:	89 44 24 d8          	mov    %eax,-0x28(%rsp)
  401969:	8b 44 24 ec          	mov    -0x14(%rsp),%eax
  40196d:	69 c0 fa 7f 00 00    	imul   $0x7ffa,%eax,%eax
  401973:	89 44 24 ec          	mov    %eax,-0x14(%rsp)
  401977:	8b 44 24 dc          	mov    -0x24(%rsp),%eax
  40197b:	69 c0 27 0e 00 00    	imul   $0xe27,%eax,%eax
  401981:	89 44 24 dc          	mov    %eax,-0x24(%rsp)
  401985:	8b 44 24 f0          	mov    -0x10(%rsp),%eax
  401989:	69 c0 a9 fd 00 00    	imul   $0xfda9,%eax,%eax
  40198f:	89 44 24 f0          	mov    %eax,-0x10(%rsp)
  401993:	8b 44 24 d4          	mov    -0x2c(%rsp),%eax
  401997:	69 c0 30 be 00 00    	imul   $0xbe30,%eax,%eax
  40199d:	89 44 24 d4          	mov    %eax,-0x2c(%rsp)
  4019a1:	8b 44 24 e4          	mov    -0x1c(%rsp),%eax
  4019a5:	69 c0 0c 49 00 00    	imul   $0x490c,%eax,%eax
  4019ab:	89 44 24 e4          	mov    %eax,-0x1c(%rsp)
  4019af:	8b 44 24 d4          	mov    -0x2c(%rsp),%eax
  4019b3:	69 c0 68 4a 00 00    	imul   $0x4a68,%eax,%eax
  4019b9:	89 44 24 d4          	mov    %eax,-0x2c(%rsp)
  4019bd:	8b 44 24 d4          	mov    -0x2c(%rsp),%eax
  4019c1:	69 c0 0b 5e 00 00    	imul   $0x5e0b,%eax,%eax
  4019c7:	89 44 24 d4          	mov    %eax,-0x2c(%rsp)
  4019cb:	8b 44 24 d8          	mov    -0x28(%rsp),%eax
  4019cf:	69 c0 df e7 00 00    	imul   $0xe7df,%eax,%eax
  4019d5:	89 44 24 d8          	mov    %eax,-0x28(%rsp)
  4019d9:	8b 44 24 dc          	mov    -0x24(%rsp),%eax
  4019dd:	69 c0 ae a4 00 00    	imul   $0xa4ae,%eax,%eax
  4019e3:	89 44 24 dc          	mov    %eax,-0x24(%rsp)
  4019e7:	8b 44 24 d4          	mov    -0x2c(%rsp),%eax
  4019eb:	69 c0 26 63 00 00    	imul   $0x6326,%eax,%eax
  4019f1:	89 44 24 d4          	mov    %eax,-0x2c(%rsp)
  4019f5:	8b 44 24 ec          	mov    -0x14(%rsp),%eax
  4019f9:	69 c0 07 91 00 00    	imul   $0x9107,%eax,%eax
  4019ff:	89 44 24 ec          	mov    %eax,-0x14(%rsp)
  401a03:	8b 44 24 f4          	mov    -0xc(%rsp),%eax
  401a07:	69 c0 3d d5 00 00    	imul   $0xd53d,%eax,%eax
  401a0d:	89 44 24 f4          	mov    %eax,-0xc(%rsp)
  401a11:	8b 44 24 ec          	mov    -0x14(%rsp),%eax
  401a15:	69 c0 f2 00 00 00    	imul   $0xf2,%eax,%eax
  401a1b:	89 44 24 ec          	mov    %eax,-0x14(%rsp)
  401a1f:	8b 44 24 f4          	mov    -0xc(%rsp),%eax
  401a23:	69 c0 04 87 00 00    	imul   $0x8704,%eax,%eax
  401a29:	89 44 24 f4          	mov    %eax,-0xc(%rsp)
  401a2d:	8b 44 24 e0          	mov    -0x20(%rsp),%eax
  401a31:	69 c0 03 1a 00 00    	imul   $0x1a03,%eax,%eax
  401a37:	89 44 24 e0          	mov    %eax,-0x20(%rsp)
  401a3b:	8b 44 24 d8          	mov    -0x28(%rsp),%eax
  401a3f:	69 c0 6d b2 00 00    	imul   $0xb26d,%eax,%eax
  401a45:	89 44 24 d8          	mov    %eax,-0x28(%rsp)
  401a49:	8b 44 24 f0          	mov    -0x10(%rsp),%eax
  401a4d:	69 c0 6f 5a 00 00    	imul   $0x5a6f,%eax,%eax
  401a53:	89 44 24 f0          	mov    %eax,-0x10(%rsp)
  401a57:	8b 44 24 ec          	mov    -0x14(%rsp),%eax
  401a5b:	69 c0 2b 2c 00 00    	imul   $0x2c2b,%eax,%eax
  401a61:	89 44 24 ec          	mov    %eax,-0x14(%rsp)
  401a65:	8b 44 24 e4          	mov    -0x1c(%rsp),%eax
  401a69:	69 c0 c3 75 00 00    	imul   $0x75c3,%eax,%eax
  401a6f:	89 44 24 e4          	mov    %eax,-0x1c(%rsp)
  401a73:	8b 44 24 f4          	mov    -0xc(%rsp),%eax
  401a77:	69 c0 50 dc 00 00    	imul   $0xdc50,%eax,%eax
  401a7d:	89 44 24 f4          	mov    %eax,-0xc(%rsp)
  401a81:	8b 44 24 dc          	mov    -0x24(%rsp),%eax
  401a85:	69 c0 7e 84 00 00    	imul   $0x847e,%eax,%eax
  401a8b:	89 44 24 dc          	mov    %eax,-0x24(%rsp)
  401a8f:	8b 44 24 e0          	mov    -0x20(%rsp),%eax
  401a93:	69 c0 f6 18 00 00    	imul   $0x18f6,%eax,%eax
  401a99:	89 44 24 e0          	mov    %eax,-0x20(%rsp)
  401a9d:	8b 44 24 ec          	mov    -0x14(%rsp),%eax
  401aa1:	69 c0 32 38 00 00    	imul   $0x3832,%eax,%eax
  401aa7:	89 44 24 ec          	mov    %eax,-0x14(%rsp)
  401aab:	8b 44 24 e8          	mov    -0x18(%rsp),%eax
  401aaf:	69 c0 4e f7 00 00    	imul   $0xf74e,%eax,%eax
  401ab5:	89 44 24 e8          	mov    %eax,-0x18(%rsp)
  401ab9:	8b 44 24 e8          	mov    -0x18(%rsp),%eax
  401abd:	69 c0 a0 58 00 00    	imul   $0x58a0,%eax,%eax
  401ac3:	89 44 24 e8          	mov    %eax,-0x18(%rsp)
  401ac7:	8b 44 24 e4          	mov    -0x1c(%rsp),%eax
  401acb:	69 c0 29 1f 00 00    	imul   $0x1f29,%eax,%eax
  401ad1:	89 44 24 e4          	mov    %eax,-0x1c(%rsp)
  401ad5:	8b 44 24 d0          	mov    -0x30(%rsp),%eax
  401ad9:	69 c0 a5 94 00 00    	imul   $0x94a5,%eax,%eax
  401adf:	89 44 24 d0          	mov    %eax,-0x30(%rsp)
  401ae3:	8b 44 24 dc          	mov    -0x24(%rsp),%eax
  401ae7:	69 c0 23 c2 00 00    	imul   $0xc223,%eax,%eax
  401aed:	89 44 24 dc          	mov    %eax,-0x24(%rsp)
  401af1:	8b 44 24 d4          	mov    -0x2c(%rsp),%eax
  401af5:	69 c0 b7 6c 00 00    	imul   $0x6cb7,%eax,%eax
  401afb:	89 44 24 d4          	mov    %eax,-0x2c(%rsp)
  401aff:	8b 44 24 e4          	mov    -0x1c(%rsp),%eax
  401b03:	69 c0 89 29 00 00    	imul   $0x2989,%eax,%eax
  401b09:	89 44 24 e4          	mov    %eax,-0x1c(%rsp)
  401b0d:	8b 44 24 f0          	mov    -0x10(%rsp),%eax
  401b11:	69 c0 5b 07 00 00    	imul   $0x75b,%eax,%eax
  401b17:	89 44 24 f0          	mov    %eax,-0x10(%rsp)
  401b1b:	8b 44 24 f0          	mov    -0x10(%rsp),%eax
  401b1f:	69 c0 b9 20 00 00    	imul   $0x20b9,%eax,%eax
  401b25:	89 44 24 f0          	mov    %eax,-0x10(%rsp)
  401b29:	8b 44 24 e8          	mov    -0x18(%rsp),%eax
  401b2d:	69 c0 8b 9c 00 00    	imul   $0x9c8b,%eax,%eax
  401b33:	89 44 24 e8          	mov    %eax,-0x18(%rsp)
  401b37:	8b 44 24 e8          	mov    -0x18(%rsp),%eax
  401b3b:	69 c0 e3 b9 00 00    	imul   $0xb9e3,%eax,%eax
  401b41:	89 44 24 e8          	mov    %eax,-0x18(%rsp)
  401b45:	8b 44 24 e8          	mov    -0x18(%rsp),%eax
  401b49:	69 c0 3f 37 00 00    	imul   $0x373f,%eax,%eax
  401b4f:	89 44 24 e8          	mov    %eax,-0x18(%rsp)
  401b53:	8b 44 24 d4          	mov    -0x2c(%rsp),%eax
  401b57:	69 c0 1d d1 00 00    	imul   $0xd11d,%eax,%eax
  401b5d:	89 44 24 d4          	mov    %eax,-0x2c(%rsp)
  401b61:	8b 44 24 ec          	mov    -0x14(%rsp),%eax
  401b65:	69 c0 ed bc 00 00    	imul   $0xbced,%eax,%eax
  401b6b:	89 44 24 ec          	mov    %eax,-0x14(%rsp)
  401b6f:	8b 44 24 e4          	mov    -0x1c(%rsp),%eax
  401b73:	69 c0 47 9e 00 00    	imul   $0x9e47,%eax,%eax
  401b79:	89 44 24 e4          	mov    %eax,-0x1c(%rsp)
  401b7d:	8b 44 24 e8          	mov    -0x18(%rsp),%eax
  401b81:	69 c0 e8 ea 00 00    	imul   $0xeae8,%eax,%eax
  401b87:	89 44 24 e8          	mov    %eax,-0x18(%rsp)
  401b8b:	8b 44 24 e8          	mov    -0x18(%rsp),%eax
  401b8f:	69 c0 ff d1 00 00    	imul   $0xd1ff,%eax,%eax
  401b95:	89 44 24 e8          	mov    %eax,-0x18(%rsp)
  401b99:	8b 44 24 d8          	mov    -0x28(%rsp),%eax
  401b9d:	69 c0 0a f0 00 00    	imul   $0xf00a,%eax,%eax
  401ba3:	89 44 24 d8          	mov    %eax,-0x28(%rsp)
  401ba7:	8b 44 24 f0          	mov    -0x10(%rsp),%eax
  401bab:	69 c0 2f 2d 00 00    	imul   $0x2d2f,%eax,%eax
  401bb1:	89 44 24 f0          	mov    %eax,-0x10(%rsp)
  401bb5:	8b 44 24 d0          	mov    -0x30(%rsp),%eax
  401bb9:	69 c0 8e e5 00 00    	imul   $0xe58e,%eax,%eax
  401bbf:	89 44 24 d0          	mov    %eax,-0x30(%rsp)
  401bc3:	ba 00 00 00 00       	mov    $0x0,%edx
  401bc8:	b8 00 00 00 00       	mov    $0x0,%eax
  401bcd:	83 fa 09             	cmp    $0x9,%edx
  401bd0:	77 0d                	ja     401bdf <scramble+0x541>
  401bd2:	89 d1                	mov    %edx,%ecx
  401bd4:	8b 4c 8c d0          	mov    -0x30(%rsp,%rcx,4),%ecx
  401bd8:	01 c8                	add    %ecx,%eax
  401bda:	83 c2 01             	add    $0x1,%edx
  401bdd:	eb ee                	jmp    401bcd <scramble+0x52f>
  401bdf:	c3                   	retq   

0000000000401be0 <getbuf>:
  401be0:	48 83 ec 38          	sub    $0x38,%rsp
  401be4:	48 89 e7             	mov    %rsp,%rdi
  401be7:	e8 43 02 00 00       	callq  401e2f <Gets>
  401bec:	b8 01 00 00 00       	mov    $0x1,%eax
  401bf1:	48 83 c4 38          	add    $0x38,%rsp
  401bf5:	c3                   	retq   

0000000000401bf6 <touch1>:
  401bf6:	48 83 ec 08          	sub    $0x8,%rsp
  401bfa:	c7 05 f8 58 00 00 01 	movl   $0x1,0x58f8(%rip)        # 4074fc <vlevel>
  401c01:	00 00 00 
  401c04:	48 8d 3d c0 26 00 00 	lea    0x26c0(%rip),%rdi        # 4042cb <_IO_stdin_used+0x2cb>
  401c0b:	e8 70 f4 ff ff       	callq  401080 <puts@plt>
  401c10:	bf 01 00 00 00       	mov    $0x1,%edi
  401c15:	e8 28 04 00 00       	callq  402042 <validate>
  401c1a:	bf 00 00 00 00       	mov    $0x0,%edi
  401c1f:	e8 cc f5 ff ff       	callq  4011f0 <exit@plt>

0000000000401c24 <touch2>:
  401c24:	48 83 ec 08          	sub    $0x8,%rsp
  401c28:	89 fe                	mov    %edi,%esi
  401c2a:	c7 05 c8 58 00 00 02 	movl   $0x2,0x58c8(%rip)        # 4074fc <vlevel>
  401c31:	00 00 00 
  401c34:	39 3d ca 58 00 00    	cmp    %edi,0x58ca(%rip)        # 407504 <cookie>
  401c3a:	74 25                	je     401c61 <touch2+0x3d>
  401c3c:	48 8d 3d d5 26 00 00 	lea    0x26d5(%rip),%rdi        # 404318 <_IO_stdin_used+0x318>
  401c43:	b8 00 00 00 00       	mov    $0x0,%eax
  401c48:	e8 63 f4 ff ff       	callq  4010b0 <printf@plt>
  401c4d:	bf 02 00 00 00       	mov    $0x2,%edi
  401c52:	e8 a9 04 00 00       	callq  402100 <fail>
  401c57:	bf 00 00 00 00       	mov    $0x0,%edi
  401c5c:	e8 8f f5 ff ff       	callq  4011f0 <exit@plt>
  401c61:	48 8d 3d 88 26 00 00 	lea    0x2688(%rip),%rdi        # 4042f0 <_IO_stdin_used+0x2f0>
  401c68:	b8 00 00 00 00       	mov    $0x0,%eax
  401c6d:	e8 3e f4 ff ff       	callq  4010b0 <printf@plt>
  401c72:	bf 02 00 00 00       	mov    $0x2,%edi
  401c77:	e8 c6 03 00 00       	callq  402042 <validate>
  401c7c:	eb d9                	jmp    401c57 <touch2+0x33>

0000000000401c7e <hexmatch>:
  401c7e:	41 54                	push   %r12
  401c80:	55                   	push   %rbp
  401c81:	53                   	push   %rbx
  401c82:	48 83 ec 70          	sub    $0x70,%rsp
  401c86:	89 fd                	mov    %edi,%ebp
  401c88:	48 89 f3             	mov    %rsi,%rbx
  401c8b:	e8 d0 f4 ff ff       	callq  401160 <random@plt>
  401c90:	48 89 c1             	mov    %rax,%rcx
  401c93:	48 ba 0b d7 a3 70 3d 	movabs $0xa3d70a3d70a3d70b,%rdx
  401c9a:	0a d7 a3 
  401c9d:	48 f7 ea             	imul   %rdx
  401ca0:	48 01 ca             	add    %rcx,%rdx
  401ca3:	48 c1 fa 06          	sar    $0x6,%rdx
  401ca7:	48 89 c8             	mov    %rcx,%rax
  401caa:	48 c1 f8 3f          	sar    $0x3f,%rax
  401cae:	48 29 c2             	sub    %rax,%rdx
  401cb1:	48 8d 04 92          	lea    (%rdx,%rdx,4),%rax
  401cb5:	48 8d 14 80          	lea    (%rax,%rax,4),%rdx
  401cb9:	48 8d 04 95 00 00 00 	lea    0x0(,%rdx,4),%rax
  401cc0:	00 
  401cc1:	48 29 c1             	sub    %rax,%rcx
  401cc4:	4c 8d 24 0c          	lea    (%rsp,%rcx,1),%r12
  401cc8:	89 ea                	mov    %ebp,%edx
  401cca:	48 8d 35 17 26 00 00 	lea    0x2617(%rip),%rsi        # 4042e8 <_IO_stdin_used+0x2e8>
  401cd1:	4c 89 e7             	mov    %r12,%rdi
  401cd4:	b8 00 00 00 00       	mov    $0x0,%eax
  401cd9:	e8 02 f5 ff ff       	callq  4011e0 <sprintf@plt>
  401cde:	ba 09 00 00 00       	mov    $0x9,%edx
  401ce3:	4c 89 e6             	mov    %r12,%rsi
  401ce6:	48 89 df             	mov    %rbx,%rdi
  401ce9:	e8 72 f3 ff ff       	callq  401060 <strncmp@plt>
  401cee:	85 c0                	test   %eax,%eax
  401cf0:	0f 94 c0             	sete   %al
  401cf3:	0f b6 c0             	movzbl %al,%eax
  401cf6:	48 83 c4 70          	add    $0x70,%rsp
  401cfa:	5b                   	pop    %rbx
  401cfb:	5d                   	pop    %rbp
  401cfc:	41 5c                	pop    %r12
  401cfe:	c3                   	retq   

0000000000401cff <touch3>:
  401cff:	53                   	push   %rbx
  401d00:	48 89 fb             	mov    %rdi,%rbx
  401d03:	c7 05 ef 57 00 00 03 	movl   $0x3,0x57ef(%rip)        # 4074fc <vlevel>
  401d0a:	00 00 00 
  401d0d:	48 89 fe             	mov    %rdi,%rsi
  401d10:	8b 3d ee 57 00 00    	mov    0x57ee(%rip),%edi        # 407504 <cookie>
  401d16:	e8 63 ff ff ff       	callq  401c7e <hexmatch>
  401d1b:	85 c0                	test   %eax,%eax
  401d1d:	74 28                	je     401d47 <touch3+0x48>
  401d1f:	48 89 de             	mov    %rbx,%rsi
  401d22:	48 8d 3d 17 26 00 00 	lea    0x2617(%rip),%rdi        # 404340 <_IO_stdin_used+0x340>
  401d29:	b8 00 00 00 00       	mov    $0x0,%eax
  401d2e:	e8 7d f3 ff ff       	callq  4010b0 <printf@plt>
  401d33:	bf 03 00 00 00       	mov    $0x3,%edi
  401d38:	e8 05 03 00 00       	callq  402042 <validate>
  401d3d:	bf 00 00 00 00       	mov    $0x0,%edi
  401d42:	e8 a9 f4 ff ff       	callq  4011f0 <exit@plt>
  401d47:	48 89 de             	mov    %rbx,%rsi
  401d4a:	48 8d 3d 17 26 00 00 	lea    0x2617(%rip),%rdi        # 404368 <_IO_stdin_used+0x368>
  401d51:	b8 00 00 00 00       	mov    $0x0,%eax
  401d56:	e8 55 f3 ff ff       	callq  4010b0 <printf@plt>
  401d5b:	bf 03 00 00 00       	mov    $0x3,%edi
  401d60:	e8 9b 03 00 00       	callq  402100 <fail>
  401d65:	eb d6                	jmp    401d3d <touch3+0x3e>

0000000000401d67 <test>:
  401d67:	48 83 ec 08          	sub    $0x8,%rsp
  401d6b:	b8 00 00 00 00       	mov    $0x0,%eax
  401d70:	e8 6b fe ff ff       	callq  401be0 <getbuf>
  401d75:	89 c6                	mov    %eax,%esi
  401d77:	48 8d 3d 12 26 00 00 	lea    0x2612(%rip),%rdi        # 404390 <_IO_stdin_used+0x390>
  401d7e:	b8 00 00 00 00       	mov    $0x0,%eax
  401d83:	e8 28 f3 ff ff       	callq  4010b0 <printf@plt>
  401d88:	48 83 c4 08          	add    $0x8,%rsp
  401d8c:	c3                   	retq   

0000000000401d8d <save_char>:
  401d8d:	8b 05 91 63 00 00    	mov    0x6391(%rip),%eax        # 408124 <gets_cnt>
  401d93:	3d ff 03 00 00       	cmp    $0x3ff,%eax
  401d98:	7f 4a                	jg     401de4 <save_char+0x57>
  401d9a:	89 f9                	mov    %edi,%ecx
  401d9c:	c0 e9 04             	shr    $0x4,%cl
  401d9f:	8d 14 40             	lea    (%rax,%rax,2),%edx
  401da2:	4c 8d 05 07 29 00 00 	lea    0x2907(%rip),%r8        # 4046b0 <trans_char>
  401da9:	83 e1 0f             	and    $0xf,%ecx
  401dac:	45 0f b6 0c 08       	movzbl (%r8,%rcx,1),%r9d
  401db1:	48 8d 0d 68 57 00 00 	lea    0x5768(%rip),%rcx        # 407520 <gets_buf>
  401db8:	48 63 f2             	movslq %edx,%rsi
  401dbb:	44 88 0c 31          	mov    %r9b,(%rcx,%rsi,1)
  401dbf:	8d 72 01             	lea    0x1(%rdx),%esi
  401dc2:	83 e7 0f             	and    $0xf,%edi
  401dc5:	41 0f b6 3c 38       	movzbl (%r8,%rdi,1),%edi
  401dca:	48 63 f6             	movslq %esi,%rsi
  401dcd:	40 88 3c 31          	mov    %dil,(%rcx,%rsi,1)
  401dd1:	83 c2 02             	add    $0x2,%edx
  401dd4:	48 63 d2             	movslq %edx,%rdx
  401dd7:	c6 04 11 20          	movb   $0x20,(%rcx,%rdx,1)
  401ddb:	83 c0 01             	add    $0x1,%eax
  401dde:	89 05 40 63 00 00    	mov    %eax,0x6340(%rip)        # 408124 <gets_cnt>
  401de4:	c3                   	retq   

0000000000401de5 <save_term>:
  401de5:	8b 05 39 63 00 00    	mov    0x6339(%rip),%eax        # 408124 <gets_cnt>
  401deb:	8d 04 40             	lea    (%rax,%rax,2),%eax
  401dee:	48 98                	cltq   
  401df0:	48 8d 15 29 57 00 00 	lea    0x5729(%rip),%rdx        # 407520 <gets_buf>
  401df7:	c6 04 02 00          	movb   $0x0,(%rdx,%rax,1)
  401dfb:	c3                   	retq   

0000000000401dfc <check_fail>:
  401dfc:	48 83 ec 08          	sub    $0x8,%rsp
  401e00:	0f be 35 21 63 00 00 	movsbl 0x6321(%rip),%esi        # 408128 <target_prefix>
  401e07:	48 8d 0d 12 57 00 00 	lea    0x5712(%rip),%rcx        # 407520 <gets_buf>
  401e0e:	8b 15 e4 56 00 00    	mov    0x56e4(%rip),%edx        # 4074f8 <check_level>
  401e14:	48 8d 3d 98 25 00 00 	lea    0x2598(%rip),%rdi        # 4043b3 <_IO_stdin_used+0x3b3>
  401e1b:	b8 00 00 00 00       	mov    $0x0,%eax
  401e20:	e8 8b f2 ff ff       	callq  4010b0 <printf@plt>
  401e25:	bf 01 00 00 00       	mov    $0x1,%edi
  401e2a:	e8 c1 f3 ff ff       	callq  4011f0 <exit@plt>

0000000000401e2f <Gets>:
  401e2f:	41 54                	push   %r12
  401e31:	55                   	push   %rbp
  401e32:	53                   	push   %rbx
  401e33:	49 89 fc             	mov    %rdi,%r12
  401e36:	c7 05 e4 62 00 00 00 	movl   $0x0,0x62e4(%rip)        # 408124 <gets_cnt>
  401e3d:	00 00 00 
  401e40:	48 89 fb             	mov    %rdi,%rbx
  401e43:	48 8b 3d a6 56 00 00 	mov    0x56a6(%rip),%rdi        # 4074f0 <infile>
  401e4a:	e8 c1 f3 ff ff       	callq  401210 <getc@plt>
  401e4f:	83 f8 ff             	cmp    $0xffffffff,%eax
  401e52:	74 18                	je     401e6c <Gets+0x3d>
  401e54:	83 f8 0a             	cmp    $0xa,%eax
  401e57:	74 13                	je     401e6c <Gets+0x3d>
  401e59:	48 8d 6b 01          	lea    0x1(%rbx),%rbp
  401e5d:	88 03                	mov    %al,(%rbx)
  401e5f:	0f b6 f8             	movzbl %al,%edi
  401e62:	e8 26 ff ff ff       	callq  401d8d <save_char>
  401e67:	48 89 eb             	mov    %rbp,%rbx
  401e6a:	eb d7                	jmp    401e43 <Gets+0x14>
  401e6c:	c6 03 00             	movb   $0x0,(%rbx)
  401e6f:	b8 00 00 00 00       	mov    $0x0,%eax
  401e74:	e8 6c ff ff ff       	callq  401de5 <save_term>
  401e79:	4c 89 e0             	mov    %r12,%rax
  401e7c:	5b                   	pop    %rbx
  401e7d:	5d                   	pop    %rbp
  401e7e:	41 5c                	pop    %r12
  401e80:	c3                   	retq   

0000000000401e81 <notify_server>:
  401e81:	83 3d 80 56 00 00 00 	cmpl   $0x0,0x5680(%rip)        # 407508 <is_checker>
  401e88:	0f 85 b3 01 00 00    	jne    402041 <notify_server+0x1c0>
  401e8e:	55                   	push   %rbp
  401e8f:	53                   	push   %rbx
  401e90:	48 81 ec 08 40 00 00 	sub    $0x4008,%rsp
  401e97:	89 fb                	mov    %edi,%ebx
  401e99:	81 3d 81 62 00 00 9c 	cmpl   $0x1f9c,0x6281(%rip)        # 408124 <gets_cnt>
  401ea0:	1f 00 00 
  401ea3:	0f 8f b8 00 00 00    	jg     401f61 <notify_server+0xe0>
  401ea9:	44 0f be 0d 77 62 00 	movsbl 0x6277(%rip),%r9d        # 408128 <target_prefix>
  401eb0:	00 
  401eb1:	83 3d d0 55 00 00 00 	cmpl   $0x0,0x55d0(%rip)        # 407488 <notify>
  401eb8:	0f 84 be 00 00 00    	je     401f7c <notify_server+0xfb>
  401ebe:	44 8b 05 3b 56 00 00 	mov    0x563b(%rip),%r8d        # 407500 <authkey>
  401ec5:	85 db                	test   %ebx,%ebx
  401ec7:	0f 84 ba 00 00 00    	je     401f87 <notify_server+0x106>
  401ecd:	48 8d 2d fa 24 00 00 	lea    0x24fa(%rip),%rbp        # 4043ce <_IO_stdin_used+0x3ce>
  401ed4:	48 8d bc 24 00 20 00 	lea    0x2000(%rsp),%rdi
  401edb:	00 
  401edc:	48 8d 05 3d 56 00 00 	lea    0x563d(%rip),%rax        # 407520 <gets_buf>
  401ee3:	50                   	push   %rax
  401ee4:	56                   	push   %rsi
  401ee5:	48 89 e9             	mov    %rbp,%rcx
  401ee8:	8b 15 42 52 00 00    	mov    0x5242(%rip),%edx        # 407130 <target_id>
  401eee:	48 8d 35 de 24 00 00 	lea    0x24de(%rip),%rsi        # 4043d3 <_IO_stdin_used+0x3d3>
  401ef5:	b8 00 00 00 00       	mov    $0x0,%eax
  401efa:	e8 e1 f2 ff ff       	callq  4011e0 <sprintf@plt>
  401eff:	48 83 c4 10          	add    $0x10,%rsp
  401f03:	83 3d 7e 55 00 00 00 	cmpl   $0x0,0x557e(%rip)        # 407488 <notify>
  401f0a:	0f 84 b7 00 00 00    	je     401fc7 <notify_server+0x146>
  401f10:	85 db                	test   %ebx,%ebx
  401f12:	0f 84 99 00 00 00    	je     401fb1 <notify_server+0x130>
  401f18:	48 8d 8c 24 00 20 00 	lea    0x2000(%rsp),%rcx
  401f1f:	00 
  401f20:	49 89 e1             	mov    %rsp,%r9
  401f23:	41 b8 00 00 00 00    	mov    $0x0,%r8d
  401f29:	48 8b 15 18 52 00 00 	mov    0x5218(%rip),%rdx        # 407148 <lab>
  401f30:	48 8b 35 19 52 00 00 	mov    0x5219(%rip),%rsi        # 407150 <course>
  401f37:	48 8b 3d 02 52 00 00 	mov    0x5202(%rip),%rdi        # 407140 <user_id>
  401f3e:	e8 64 10 00 00       	callq  402fa7 <driver_post>
  401f43:	85 c0                	test   %eax,%eax
  401f45:	78 4c                	js     401f93 <notify_server+0x112>
  401f47:	48 8d 3d ca 25 00 00 	lea    0x25ca(%rip),%rdi        # 404518 <_IO_stdin_used+0x518>
  401f4e:	e8 2d f1 ff ff       	callq  401080 <puts@plt>
  401f53:	48 8d 3d a1 24 00 00 	lea    0x24a1(%rip),%rdi        # 4043fb <_IO_stdin_used+0x3fb>
  401f5a:	e8 21 f1 ff ff       	callq  401080 <puts@plt>
  401f5f:	eb 5c                	jmp    401fbd <notify_server+0x13c>
  401f61:	48 8d 3d 80 25 00 00 	lea    0x2580(%rip),%rdi        # 4044e8 <_IO_stdin_used+0x4e8>
  401f68:	b8 00 00 00 00       	mov    $0x0,%eax
  401f6d:	e8 3e f1 ff ff       	callq  4010b0 <printf@plt>
  401f72:	bf 01 00 00 00       	mov    $0x1,%edi
  401f77:	e8 74 f2 ff ff       	callq  4011f0 <exit@plt>
  401f7c:	41 b8 ff ff ff ff    	mov    $0xffffffff,%r8d
  401f82:	e9 3e ff ff ff       	jmpq   401ec5 <notify_server+0x44>
  401f87:	48 8d 2d 3b 24 00 00 	lea    0x243b(%rip),%rbp        # 4043c9 <_IO_stdin_used+0x3c9>
  401f8e:	e9 41 ff ff ff       	jmpq   401ed4 <notify_server+0x53>
  401f93:	48 89 e6             	mov    %rsp,%rsi
  401f96:	48 8d 3d 52 24 00 00 	lea    0x2452(%rip),%rdi        # 4043ef <_IO_stdin_used+0x3ef>
  401f9d:	b8 00 00 00 00       	mov    $0x0,%eax
  401fa2:	e8 09 f1 ff ff       	callq  4010b0 <printf@plt>
  401fa7:	bf 01 00 00 00       	mov    $0x1,%edi
  401fac:	e8 3f f2 ff ff       	callq  4011f0 <exit@plt>
  401fb1:	48 8d 3d 4d 24 00 00 	lea    0x244d(%rip),%rdi        # 404405 <_IO_stdin_used+0x405>
  401fb8:	e8 c3 f0 ff ff       	callq  401080 <puts@plt>
  401fbd:	48 81 c4 08 40 00 00 	add    $0x4008,%rsp
  401fc4:	5b                   	pop    %rbx
  401fc5:	5d                   	pop    %rbp
  401fc6:	c3                   	retq   
  401fc7:	48 89 ee             	mov    %rbp,%rsi
  401fca:	48 8d 3d 7f 25 00 00 	lea    0x257f(%rip),%rdi        # 404550 <_IO_stdin_used+0x550>
  401fd1:	b8 00 00 00 00       	mov    $0x0,%eax
  401fd6:	e8 d5 f0 ff ff       	callq  4010b0 <printf@plt>
  401fdb:	48 8b 35 5e 51 00 00 	mov    0x515e(%rip),%rsi        # 407140 <user_id>
  401fe2:	48 8d 3d 23 24 00 00 	lea    0x2423(%rip),%rdi        # 40440c <_IO_stdin_used+0x40c>
  401fe9:	b8 00 00 00 00       	mov    $0x0,%eax
  401fee:	e8 bd f0 ff ff       	callq  4010b0 <printf@plt>
  401ff3:	48 8b 35 56 51 00 00 	mov    0x5156(%rip),%rsi        # 407150 <course>
  401ffa:	48 8d 3d 18 24 00 00 	lea    0x2418(%rip),%rdi        # 404419 <_IO_stdin_used+0x419>
  402001:	b8 00 00 00 00       	mov    $0x0,%eax
  402006:	e8 a5 f0 ff ff       	callq  4010b0 <printf@plt>
  40200b:	48 8b 35 36 51 00 00 	mov    0x5136(%rip),%rsi        # 407148 <lab>
  402012:	48 8d 3d 0c 24 00 00 	lea    0x240c(%rip),%rdi        # 404425 <_IO_stdin_used+0x425>
  402019:	b8 00 00 00 00       	mov    $0x0,%eax
  40201e:	e8 8d f0 ff ff       	callq  4010b0 <printf@plt>
  402023:	48 8d b4 24 00 20 00 	lea    0x2000(%rsp),%rsi
  40202a:	00 
  40202b:	48 8d 3d fc 23 00 00 	lea    0x23fc(%rip),%rdi        # 40442e <_IO_stdin_used+0x42e>
  402032:	b8 00 00 00 00       	mov    $0x0,%eax
  402037:	e8 74 f0 ff ff       	callq  4010b0 <printf@plt>
  40203c:	e9 7c ff ff ff       	jmpq   401fbd <notify_server+0x13c>
  402041:	c3                   	retq   

0000000000402042 <validate>:
  402042:	53                   	push   %rbx
  402043:	89 fb                	mov    %edi,%ebx
  402045:	83 3d bc 54 00 00 00 	cmpl   $0x0,0x54bc(%rip)        # 407508 <is_checker>
  40204c:	74 68                	je     4020b6 <validate+0x74>
  40204e:	39 3d a8 54 00 00    	cmp    %edi,0x54a8(%rip)        # 4074fc <vlevel>
  402054:	75 2d                	jne    402083 <validate+0x41>
  402056:	8b 35 9c 54 00 00    	mov    0x549c(%rip),%esi        # 4074f8 <check_level>
  40205c:	39 fe                	cmp    %edi,%esi
  40205e:	75 39                	jne    402099 <validate+0x57>
  402060:	0f be 35 c1 60 00 00 	movsbl 0x60c1(%rip),%esi        # 408128 <target_prefix>
  402067:	48 8d 0d b2 54 00 00 	lea    0x54b2(%rip),%rcx        # 407520 <gets_buf>
  40206e:	89 fa                	mov    %edi,%edx
  402070:	48 8d 3d e1 23 00 00 	lea    0x23e1(%rip),%rdi        # 404458 <_IO_stdin_used+0x458>
  402077:	b8 00 00 00 00       	mov    $0x0,%eax
  40207c:	e8 2f f0 ff ff       	callq  4010b0 <printf@plt>
  402081:	5b                   	pop    %rbx
  402082:	c3                   	retq   
  402083:	48 8d 3d b0 23 00 00 	lea    0x23b0(%rip),%rdi        # 40443a <_IO_stdin_used+0x43a>
  40208a:	e8 f1 ef ff ff       	callq  401080 <puts@plt>
  40208f:	b8 00 00 00 00       	mov    $0x0,%eax
  402094:	e8 63 fd ff ff       	callq  401dfc <check_fail>
  402099:	89 fa                	mov    %edi,%edx
  40209b:	48 8d 3d d6 24 00 00 	lea    0x24d6(%rip),%rdi        # 404578 <_IO_stdin_used+0x578>
  4020a2:	b8 00 00 00 00       	mov    $0x0,%eax
  4020a7:	e8 04 f0 ff ff       	callq  4010b0 <printf@plt>
  4020ac:	b8 00 00 00 00       	mov    $0x0,%eax
  4020b1:	e8 46 fd ff ff       	callq  401dfc <check_fail>
  4020b6:	39 3d 40 54 00 00    	cmp    %edi,0x5440(%rip)        # 4074fc <vlevel>
  4020bc:	74 1a                	je     4020d8 <validate+0x96>
  4020be:	48 8d 3d 75 23 00 00 	lea    0x2375(%rip),%rdi        # 40443a <_IO_stdin_used+0x43a>
  4020c5:	e8 b6 ef ff ff       	callq  401080 <puts@plt>
  4020ca:	89 de                	mov    %ebx,%esi
  4020cc:	bf 00 00 00 00       	mov    $0x0,%edi
  4020d1:	e8 ab fd ff ff       	callq  401e81 <notify_server>
  4020d6:	eb a9                	jmp    402081 <validate+0x3f>
  4020d8:	0f be 15 49 60 00 00 	movsbl 0x6049(%rip),%edx        # 408128 <target_prefix>
  4020df:	89 fe                	mov    %edi,%esi
  4020e1:	48 8d 3d b8 24 00 00 	lea    0x24b8(%rip),%rdi        # 4045a0 <_IO_stdin_used+0x5a0>
  4020e8:	b8 00 00 00 00       	mov    $0x0,%eax
  4020ed:	e8 be ef ff ff       	callq  4010b0 <printf@plt>
  4020f2:	89 de                	mov    %ebx,%esi
  4020f4:	bf 01 00 00 00       	mov    $0x1,%edi
  4020f9:	e8 83 fd ff ff       	callq  401e81 <notify_server>
  4020fe:	eb 81                	jmp    402081 <validate+0x3f>

0000000000402100 <fail>:
  402100:	48 83 ec 08          	sub    $0x8,%rsp
  402104:	83 3d fd 53 00 00 00 	cmpl   $0x0,0x53fd(%rip)        # 407508 <is_checker>
  40210b:	75 11                	jne    40211e <fail+0x1e>
  40210d:	89 fe                	mov    %edi,%esi
  40210f:	bf 00 00 00 00       	mov    $0x0,%edi
  402114:	e8 68 fd ff ff       	callq  401e81 <notify_server>
  402119:	48 83 c4 08          	add    $0x8,%rsp
  40211d:	c3                   	retq   
  40211e:	b8 00 00 00 00       	mov    $0x0,%eax
  402123:	e8 d4 fc ff ff       	callq  401dfc <check_fail>

0000000000402128 <bushandler>:
  402128:	48 83 ec 08          	sub    $0x8,%rsp
  40212c:	83 3d d5 53 00 00 00 	cmpl   $0x0,0x53d5(%rip)        # 407508 <is_checker>
  402133:	74 16                	je     40214b <bushandler+0x23>
  402135:	48 8d 3d 31 23 00 00 	lea    0x2331(%rip),%rdi        # 40446d <_IO_stdin_used+0x46d>
  40213c:	e8 3f ef ff ff       	callq  401080 <puts@plt>
  402141:	b8 00 00 00 00       	mov    $0x0,%eax
  402146:	e8 b1 fc ff ff       	callq  401dfc <check_fail>
  40214b:	48 8d 3d 86 24 00 00 	lea    0x2486(%rip),%rdi        # 4045d8 <_IO_stdin_used+0x5d8>
  402152:	e8 29 ef ff ff       	callq  401080 <puts@plt>
  402157:	48 8d 3d 19 23 00 00 	lea    0x2319(%rip),%rdi        # 404477 <_IO_stdin_used+0x477>
  40215e:	e8 1d ef ff ff       	callq  401080 <puts@plt>
  402163:	be 00 00 00 00       	mov    $0x0,%esi
  402168:	bf 00 00 00 00       	mov    $0x0,%edi
  40216d:	e8 0f fd ff ff       	callq  401e81 <notify_server>
  402172:	bf 01 00 00 00       	mov    $0x1,%edi
  402177:	e8 74 f0 ff ff       	callq  4011f0 <exit@plt>

000000000040217c <seghandler>:
  40217c:	48 83 ec 08          	sub    $0x8,%rsp
  402180:	83 3d 81 53 00 00 00 	cmpl   $0x0,0x5381(%rip)        # 407508 <is_checker>
  402187:	74 16                	je     40219f <seghandler+0x23>
  402189:	48 8d 3d fd 22 00 00 	lea    0x22fd(%rip),%rdi        # 40448d <_IO_stdin_used+0x48d>
  402190:	e8 eb ee ff ff       	callq  401080 <puts@plt>
  402195:	b8 00 00 00 00       	mov    $0x0,%eax
  40219a:	e8 5d fc ff ff       	callq  401dfc <check_fail>
  40219f:	48 8d 3d 52 24 00 00 	lea    0x2452(%rip),%rdi        # 4045f8 <_IO_stdin_used+0x5f8>
  4021a6:	e8 d5 ee ff ff       	callq  401080 <puts@plt>
  4021ab:	48 8d 3d c5 22 00 00 	lea    0x22c5(%rip),%rdi        # 404477 <_IO_stdin_used+0x477>
  4021b2:	e8 c9 ee ff ff       	callq  401080 <puts@plt>
  4021b7:	be 00 00 00 00       	mov    $0x0,%esi
  4021bc:	bf 00 00 00 00       	mov    $0x0,%edi
  4021c1:	e8 bb fc ff ff       	callq  401e81 <notify_server>
  4021c6:	bf 01 00 00 00       	mov    $0x1,%edi
  4021cb:	e8 20 f0 ff ff       	callq  4011f0 <exit@plt>

00000000004021d0 <illegalhandler>:
  4021d0:	48 83 ec 08          	sub    $0x8,%rsp
  4021d4:	83 3d 2d 53 00 00 00 	cmpl   $0x0,0x532d(%rip)        # 407508 <is_checker>
  4021db:	74 16                	je     4021f3 <illegalhandler+0x23>
  4021dd:	48 8d 3d bc 22 00 00 	lea    0x22bc(%rip),%rdi        # 4044a0 <_IO_stdin_used+0x4a0>
  4021e4:	e8 97 ee ff ff       	callq  401080 <puts@plt>
  4021e9:	b8 00 00 00 00       	mov    $0x0,%eax
  4021ee:	e8 09 fc ff ff       	callq  401dfc <check_fail>
  4021f3:	48 8d 3d 26 24 00 00 	lea    0x2426(%rip),%rdi        # 404620 <_IO_stdin_used+0x620>
  4021fa:	e8 81 ee ff ff       	callq  401080 <puts@plt>
  4021ff:	48 8d 3d 71 22 00 00 	lea    0x2271(%rip),%rdi        # 404477 <_IO_stdin_used+0x477>
  402206:	e8 75 ee ff ff       	callq  401080 <puts@plt>
  40220b:	be 00 00 00 00       	mov    $0x0,%esi
  402210:	bf 00 00 00 00       	mov    $0x0,%edi
  402215:	e8 67 fc ff ff       	callq  401e81 <notify_server>
  40221a:	bf 01 00 00 00       	mov    $0x1,%edi
  40221f:	e8 cc ef ff ff       	callq  4011f0 <exit@plt>

0000000000402224 <sigalrmhandler>:
  402224:	48 83 ec 08          	sub    $0x8,%rsp
  402228:	83 3d d9 52 00 00 00 	cmpl   $0x0,0x52d9(%rip)        # 407508 <is_checker>
  40222f:	74 16                	je     402247 <sigalrmhandler+0x23>
  402231:	48 8d 3d 7c 22 00 00 	lea    0x227c(%rip),%rdi        # 4044b4 <_IO_stdin_used+0x4b4>
  402238:	e8 43 ee ff ff       	callq  401080 <puts@plt>
  40223d:	b8 00 00 00 00       	mov    $0x0,%eax
  402242:	e8 b5 fb ff ff       	callq  401dfc <check_fail>
  402247:	be 05 00 00 00       	mov    $0x5,%esi
  40224c:	48 8d 3d fd 23 00 00 	lea    0x23fd(%rip),%rdi        # 404650 <_IO_stdin_used+0x650>
  402253:	b8 00 00 00 00       	mov    $0x0,%eax
  402258:	e8 53 ee ff ff       	callq  4010b0 <printf@plt>
  40225d:	be 00 00 00 00       	mov    $0x0,%esi
  402262:	bf 00 00 00 00       	mov    $0x0,%edi
  402267:	e8 15 fc ff ff       	callq  401e81 <notify_server>
  40226c:	bf 01 00 00 00       	mov    $0x1,%edi
  402271:	e8 7a ef ff ff       	callq  4011f0 <exit@plt>

0000000000402276 <launch>:
  402276:	55                   	push   %rbp
  402277:	48 89 e5             	mov    %rsp,%rbp
  40227a:	48 89 fa             	mov    %rdi,%rdx
  40227d:	48 8d 47 17          	lea    0x17(%rdi),%rax
  402281:	48 83 e0 f0          	and    $0xfffffffffffffff0,%rax
  402285:	48 29 c4             	sub    %rax,%rsp
  402288:	48 8d 7c 24 0f       	lea    0xf(%rsp),%rdi
  40228d:	48 83 e7 f0          	and    $0xfffffffffffffff0,%rdi
  402291:	be f4 00 00 00       	mov    $0xf4,%esi
  402296:	e8 25 ee ff ff       	callq  4010c0 <memset@plt>
  40229b:	48 8b 05 fe 51 00 00 	mov    0x51fe(%rip),%rax        # 4074a0 <stdin@@GLIBC_2.2.5>
  4022a2:	48 39 05 47 52 00 00 	cmp    %rax,0x5247(%rip)        # 4074f0 <infile>
  4022a9:	74 2b                	je     4022d6 <launch+0x60>
  4022ab:	c7 05 47 52 00 00 00 	movl   $0x0,0x5247(%rip)        # 4074fc <vlevel>
  4022b2:	00 00 00 
  4022b5:	b8 00 00 00 00       	mov    $0x0,%eax
  4022ba:	e8 a8 fa ff ff       	callq  401d67 <test>
  4022bf:	83 3d 42 52 00 00 00 	cmpl   $0x0,0x5242(%rip)        # 407508 <is_checker>
  4022c6:	75 21                	jne    4022e9 <launch+0x73>
  4022c8:	48 8d 3d 05 22 00 00 	lea    0x2205(%rip),%rdi        # 4044d4 <_IO_stdin_used+0x4d4>
  4022cf:	e8 ac ed ff ff       	callq  401080 <puts@plt>
  4022d4:	c9                   	leaveq 
  4022d5:	c3                   	retq   
  4022d6:	48 8d 3d df 21 00 00 	lea    0x21df(%rip),%rdi        # 4044bc <_IO_stdin_used+0x4bc>
  4022dd:	b8 00 00 00 00       	mov    $0x0,%eax
  4022e2:	e8 c9 ed ff ff       	callq  4010b0 <printf@plt>
  4022e7:	eb c2                	jmp    4022ab <launch+0x35>
  4022e9:	48 8d 3d d9 21 00 00 	lea    0x21d9(%rip),%rdi        # 4044c9 <_IO_stdin_used+0x4c9>
  4022f0:	e8 8b ed ff ff       	callq  401080 <puts@plt>
  4022f5:	b8 00 00 00 00       	mov    $0x0,%eax
  4022fa:	e8 fd fa ff ff       	callq  401dfc <check_fail>

00000000004022ff <stable_launch>:
  4022ff:	53                   	push   %rbx
  402300:	48 89 3d e1 51 00 00 	mov    %rdi,0x51e1(%rip)        # 4074e8 <global_offset>
  402307:	41 b9 00 00 00 00    	mov    $0x0,%r9d
  40230d:	41 b8 00 00 00 00    	mov    $0x0,%r8d
  402313:	b9 32 01 00 00       	mov    $0x132,%ecx
  402318:	ba 07 00 00 00       	mov    $0x7,%edx
  40231d:	be 00 00 10 00       	mov    $0x100000,%esi
  402322:	bf 00 60 58 55       	mov    $0x55586000,%edi
  402327:	e8 74 ed ff ff       	callq  4010a0 <mmap@plt>
  40232c:	48 89 c3             	mov    %rax,%rbx
  40232f:	48 3d 00 60 58 55    	cmp    $0x55586000,%rax
  402335:	75 43                	jne    40237a <stable_launch+0x7b>
  402337:	48 8d 90 f8 ff 0f 00 	lea    0xffff8(%rax),%rdx
  40233e:	48 89 15 eb 5d 00 00 	mov    %rdx,0x5deb(%rip)        # 408130 <stack_top>
  402345:	48 89 e0             	mov    %rsp,%rax
  402348:	48 89 d4             	mov    %rdx,%rsp
  40234b:	48 89 c2             	mov    %rax,%rdx
  40234e:	48 89 15 8b 51 00 00 	mov    %rdx,0x518b(%rip)        # 4074e0 <global_save_stack>
  402355:	48 8b 3d 8c 51 00 00 	mov    0x518c(%rip),%rdi        # 4074e8 <global_offset>
  40235c:	e8 15 ff ff ff       	callq  402276 <launch>
  402361:	48 8b 05 78 51 00 00 	mov    0x5178(%rip),%rax        # 4074e0 <global_save_stack>
  402368:	48 89 c4             	mov    %rax,%rsp
  40236b:	be 00 00 10 00       	mov    $0x100000,%esi
  402370:	48 89 df             	mov    %rbx,%rdi
  402373:	e8 08 ee ff ff       	callq  401180 <munmap@plt>
  402378:	5b                   	pop    %rbx
  402379:	c3                   	retq   
  40237a:	be 00 00 10 00       	mov    $0x100000,%esi
  40237f:	48 89 c7             	mov    %rax,%rdi
  402382:	e8 f9 ed ff ff       	callq  401180 <munmap@plt>
  402387:	ba 00 60 58 55       	mov    $0x55586000,%edx
  40238c:	48 8d 35 f5 22 00 00 	lea    0x22f5(%rip),%rsi        # 404688 <_IO_stdin_used+0x688>
  402393:	48 8b 3d 26 51 00 00 	mov    0x5126(%rip),%rdi        # 4074c0 <stderr@@GLIBC_2.2.5>
  40239a:	b8 00 00 00 00       	mov    $0x0,%eax
  40239f:	e8 7c ed ff ff       	callq  401120 <fprintf@plt>
  4023a4:	bf 01 00 00 00       	mov    $0x1,%edi
  4023a9:	e8 42 ee ff ff       	callq  4011f0 <exit@plt>

00000000004023ae <rio_readinitb>:
  4023ae:	89 37                	mov    %esi,(%rdi)
  4023b0:	c7 47 04 00 00 00 00 	movl   $0x0,0x4(%rdi)
  4023b7:	48 8d 47 10          	lea    0x10(%rdi),%rax
  4023bb:	48 89 47 08          	mov    %rax,0x8(%rdi)
  4023bf:	c3                   	retq   

00000000004023c0 <sigalrm_handler>:
  4023c0:	48 83 ec 08          	sub    $0x8,%rsp
  4023c4:	ba 00 00 00 00       	mov    $0x0,%edx
  4023c9:	48 8d 35 f0 22 00 00 	lea    0x22f0(%rip),%rsi        # 4046c0 <trans_char+0x10>
  4023d0:	48 8b 3d e9 50 00 00 	mov    0x50e9(%rip),%rdi        # 4074c0 <stderr@@GLIBC_2.2.5>
  4023d7:	b8 00 00 00 00       	mov    $0x0,%eax
  4023dc:	e8 3f ed ff ff       	callq  401120 <fprintf@plt>
  4023e1:	bf 01 00 00 00       	mov    $0x1,%edi
  4023e6:	e8 05 ee ff ff       	callq  4011f0 <exit@plt>

00000000004023eb <urlencode>:
  4023eb:	41 54                	push   %r12
  4023ed:	55                   	push   %rbp
  4023ee:	53                   	push   %rbx
  4023ef:	48 83 ec 10          	sub    $0x10,%rsp
  4023f3:	48 89 fb             	mov    %rdi,%rbx
  4023f6:	48 89 f5             	mov    %rsi,%rbp
  4023f9:	48 c7 c1 ff ff ff ff 	mov    $0xffffffffffffffff,%rcx
  402400:	b8 00 00 00 00       	mov    $0x0,%eax
  402405:	f2 ae                	repnz scas %es:(%rdi),%al
  402407:	48 89 ce             	mov    %rcx,%rsi
  40240a:	48 f7 d6             	not    %rsi
  40240d:	8d 46 ff             	lea    -0x1(%rsi),%eax
  402410:	eb 0e                	jmp    402420 <urlencode+0x35>
  402412:	88 55 00             	mov    %dl,0x0(%rbp)
  402415:	48 8d 6d 01          	lea    0x1(%rbp),%rbp
  402419:	48 83 c3 01          	add    $0x1,%rbx
  40241d:	44 89 e0             	mov    %r12d,%eax
  402420:	44 8d 60 ff          	lea    -0x1(%rax),%r12d
  402424:	85 c0                	test   %eax,%eax
  402426:	0f 84 95 00 00 00    	je     4024c1 <urlencode+0xd6>
  40242c:	0f b6 13             	movzbl (%rbx),%edx
  40242f:	80 fa 2a             	cmp    $0x2a,%dl
  402432:	0f 94 c1             	sete   %cl
  402435:	80 fa 2d             	cmp    $0x2d,%dl
  402438:	0f 94 c0             	sete   %al
  40243b:	08 c1                	or     %al,%cl
  40243d:	75 d3                	jne    402412 <urlencode+0x27>
  40243f:	80 fa 2e             	cmp    $0x2e,%dl
  402442:	74 ce                	je     402412 <urlencode+0x27>
  402444:	80 fa 5f             	cmp    $0x5f,%dl
  402447:	74 c9                	je     402412 <urlencode+0x27>
  402449:	8d 42 d0             	lea    -0x30(%rdx),%eax
  40244c:	3c 09                	cmp    $0x9,%al
  40244e:	76 c2                	jbe    402412 <urlencode+0x27>
  402450:	8d 42 bf             	lea    -0x41(%rdx),%eax
  402453:	3c 19                	cmp    $0x19,%al
  402455:	76 bb                	jbe    402412 <urlencode+0x27>
  402457:	8d 42 9f             	lea    -0x61(%rdx),%eax
  40245a:	3c 19                	cmp    $0x19,%al
  40245c:	76 b4                	jbe    402412 <urlencode+0x27>
  40245e:	80 fa 20             	cmp    $0x20,%dl
  402461:	74 4c                	je     4024af <urlencode+0xc4>
  402463:	8d 42 e0             	lea    -0x20(%rdx),%eax
  402466:	3c 5f                	cmp    $0x5f,%al
  402468:	0f 96 c1             	setbe  %cl
  40246b:	80 fa 09             	cmp    $0x9,%dl
  40246e:	0f 94 c0             	sete   %al
  402471:	08 c1                	or     %al,%cl
  402473:	74 47                	je     4024bc <urlencode+0xd1>
  402475:	0f b6 d2             	movzbl %dl,%edx
  402478:	48 8d 7c 24 08       	lea    0x8(%rsp),%rdi
  40247d:	48 8d 35 d1 22 00 00 	lea    0x22d1(%rip),%rsi        # 404755 <trans_char+0xa5>
  402484:	b8 00 00 00 00       	mov    $0x0,%eax
  402489:	e8 52 ed ff ff       	callq  4011e0 <sprintf@plt>
  40248e:	0f b6 44 24 08       	movzbl 0x8(%rsp),%eax
  402493:	88 45 00             	mov    %al,0x0(%rbp)
  402496:	0f b6 44 24 09       	movzbl 0x9(%rsp),%eax
  40249b:	88 45 01             	mov    %al,0x1(%rbp)
  40249e:	0f b6 44 24 0a       	movzbl 0xa(%rsp),%eax
  4024a3:	88 45 02             	mov    %al,0x2(%rbp)
  4024a6:	48 8d 6d 03          	lea    0x3(%rbp),%rbp
  4024aa:	e9 6a ff ff ff       	jmpq   402419 <urlencode+0x2e>
  4024af:	c6 45 00 2b          	movb   $0x2b,0x0(%rbp)
  4024b3:	48 8d 6d 01          	lea    0x1(%rbp),%rbp
  4024b7:	e9 5d ff ff ff       	jmpq   402419 <urlencode+0x2e>
  4024bc:	b8 ff ff ff ff       	mov    $0xffffffff,%eax
  4024c1:	48 83 c4 10          	add    $0x10,%rsp
  4024c5:	5b                   	pop    %rbx
  4024c6:	5d                   	pop    %rbp
  4024c7:	41 5c                	pop    %r12
  4024c9:	c3                   	retq   

00000000004024ca <rio_writen>:
  4024ca:	41 55                	push   %r13
  4024cc:	41 54                	push   %r12
  4024ce:	55                   	push   %rbp
  4024cf:	53                   	push   %rbx
  4024d0:	48 83 ec 08          	sub    $0x8,%rsp
  4024d4:	41 89 fc             	mov    %edi,%r12d
  4024d7:	48 89 f5             	mov    %rsi,%rbp
  4024da:	49 89 d5             	mov    %rdx,%r13
  4024dd:	48 89 d3             	mov    %rdx,%rbx
  4024e0:	eb 06                	jmp    4024e8 <rio_writen+0x1e>
  4024e2:	48 29 c3             	sub    %rax,%rbx
  4024e5:	48 01 c5             	add    %rax,%rbp
  4024e8:	48 85 db             	test   %rbx,%rbx
  4024eb:	74 24                	je     402511 <rio_writen+0x47>
  4024ed:	48 89 da             	mov    %rbx,%rdx
  4024f0:	48 89 ee             	mov    %rbp,%rsi
  4024f3:	44 89 e7             	mov    %r12d,%edi
  4024f6:	e8 95 eb ff ff       	callq  401090 <write@plt>
  4024fb:	48 85 c0             	test   %rax,%rax
  4024fe:	7f e2                	jg     4024e2 <rio_writen+0x18>
  402500:	e8 3b eb ff ff       	callq  401040 <__errno_location@plt>
  402505:	83 38 04             	cmpl   $0x4,(%rax)
  402508:	75 15                	jne    40251f <rio_writen+0x55>
  40250a:	b8 00 00 00 00       	mov    $0x0,%eax
  40250f:	eb d1                	jmp    4024e2 <rio_writen+0x18>
  402511:	4c 89 e8             	mov    %r13,%rax
  402514:	48 83 c4 08          	add    $0x8,%rsp
  402518:	5b                   	pop    %rbx
  402519:	5d                   	pop    %rbp
  40251a:	41 5c                	pop    %r12
  40251c:	41 5d                	pop    %r13
  40251e:	c3                   	retq   
  40251f:	48 c7 c0 ff ff ff ff 	mov    $0xffffffffffffffff,%rax
  402526:	eb ec                	jmp    402514 <rio_writen+0x4a>

0000000000402528 <rio_read>:
  402528:	41 55                	push   %r13
  40252a:	41 54                	push   %r12
  40252c:	55                   	push   %rbp
  40252d:	53                   	push   %rbx
  40252e:	48 83 ec 08          	sub    $0x8,%rsp
  402532:	48 89 fb             	mov    %rdi,%rbx
  402535:	49 89 f5             	mov    %rsi,%r13
  402538:	49 89 d4             	mov    %rdx,%r12
  40253b:	eb 0a                	jmp    402547 <rio_read+0x1f>
  40253d:	e8 fe ea ff ff       	callq  401040 <__errno_location@plt>
  402542:	83 38 04             	cmpl   $0x4,(%rax)
  402545:	75 5a                	jne    4025a1 <rio_read+0x79>
  402547:	8b 6b 04             	mov    0x4(%rbx),%ebp
  40254a:	85 ed                	test   %ebp,%ebp
  40254c:	7f 22                	jg     402570 <rio_read+0x48>
  40254e:	48 8d 6b 10          	lea    0x10(%rbx),%rbp
  402552:	ba 00 20 00 00       	mov    $0x2000,%edx
  402557:	48 89 ee             	mov    %rbp,%rsi
  40255a:	8b 3b                	mov    (%rbx),%edi
  40255c:	e8 8f eb ff ff       	callq  4010f0 <read@plt>
  402561:	89 43 04             	mov    %eax,0x4(%rbx)
  402564:	85 c0                	test   %eax,%eax
  402566:	78 d5                	js     40253d <rio_read+0x15>
  402568:	74 40                	je     4025aa <rio_read+0x82>
  40256a:	48 89 6b 08          	mov    %rbp,0x8(%rbx)
  40256e:	eb d7                	jmp    402547 <rio_read+0x1f>
  402570:	89 e8                	mov    %ebp,%eax
  402572:	4c 39 e0             	cmp    %r12,%rax
  402575:	72 03                	jb     40257a <rio_read+0x52>
  402577:	44 89 e5             	mov    %r12d,%ebp
  40257a:	4c 63 e5             	movslq %ebp,%r12
  40257d:	48 8b 73 08          	mov    0x8(%rbx),%rsi
  402581:	4c 89 e2             	mov    %r12,%rdx
  402584:	4c 89 ef             	mov    %r13,%rdi
  402587:	e8 b4 eb ff ff       	callq  401140 <memcpy@plt>
  40258c:	4c 01 63 08          	add    %r12,0x8(%rbx)
  402590:	29 6b 04             	sub    %ebp,0x4(%rbx)
  402593:	4c 89 e0             	mov    %r12,%rax
  402596:	48 83 c4 08          	add    $0x8,%rsp
  40259a:	5b                   	pop    %rbx
  40259b:	5d                   	pop    %rbp
  40259c:	41 5c                	pop    %r12
  40259e:	41 5d                	pop    %r13
  4025a0:	c3                   	retq   
  4025a1:	48 c7 c0 ff ff ff ff 	mov    $0xffffffffffffffff,%rax
  4025a8:	eb ec                	jmp    402596 <rio_read+0x6e>
  4025aa:	b8 00 00 00 00       	mov    $0x0,%eax
  4025af:	eb e5                	jmp    402596 <rio_read+0x6e>

00000000004025b1 <rio_readlineb>:
  4025b1:	41 55                	push   %r13
  4025b3:	41 54                	push   %r12
  4025b5:	55                   	push   %rbp
  4025b6:	53                   	push   %rbx
  4025b7:	48 83 ec 18          	sub    $0x18,%rsp
  4025bb:	49 89 fd             	mov    %rdi,%r13
  4025be:	48 89 f5             	mov    %rsi,%rbp
  4025c1:	49 89 d4             	mov    %rdx,%r12
  4025c4:	bb 01 00 00 00       	mov    $0x1,%ebx
  4025c9:	4c 39 e3             	cmp    %r12,%rbx
  4025cc:	73 44                	jae    402612 <rio_readlineb+0x61>
  4025ce:	48 8d 74 24 0f       	lea    0xf(%rsp),%rsi
  4025d3:	ba 01 00 00 00       	mov    $0x1,%edx
  4025d8:	4c 89 ef             	mov    %r13,%rdi
  4025db:	e8 48 ff ff ff       	callq  402528 <rio_read>
  4025e0:	83 f8 01             	cmp    $0x1,%eax
  4025e3:	75 19                	jne    4025fe <rio_readlineb+0x4d>
  4025e5:	48 8d 55 01          	lea    0x1(%rbp),%rdx
  4025e9:	0f b6 44 24 0f       	movzbl 0xf(%rsp),%eax
  4025ee:	88 45 00             	mov    %al,0x0(%rbp)
  4025f1:	3c 0a                	cmp    $0xa,%al
  4025f3:	74 1a                	je     40260f <rio_readlineb+0x5e>
  4025f5:	48 83 c3 01          	add    $0x1,%rbx
  4025f9:	48 89 d5             	mov    %rdx,%rbp
  4025fc:	eb cb                	jmp    4025c9 <rio_readlineb+0x18>
  4025fe:	85 c0                	test   %eax,%eax
  402600:	75 22                	jne    402624 <rio_readlineb+0x73>
  402602:	48 83 fb 01          	cmp    $0x1,%rbx
  402606:	75 0a                	jne    402612 <rio_readlineb+0x61>
  402608:	b8 00 00 00 00       	mov    $0x0,%eax
  40260d:	eb 0a                	jmp    402619 <rio_readlineb+0x68>
  40260f:	48 89 d5             	mov    %rdx,%rbp
  402612:	c6 45 00 00          	movb   $0x0,0x0(%rbp)
  402616:	48 89 d8             	mov    %rbx,%rax
  402619:	48 83 c4 18          	add    $0x18,%rsp
  40261d:	5b                   	pop    %rbx
  40261e:	5d                   	pop    %rbp
  40261f:	41 5c                	pop    %r12
  402621:	41 5d                	pop    %r13
  402623:	c3                   	retq   
  402624:	48 c7 c0 ff ff ff ff 	mov    $0xffffffffffffffff,%rax
  40262b:	eb ec                	jmp    402619 <rio_readlineb+0x68>

000000000040262d <submitr>:
  40262d:	41 57                	push   %r15
  40262f:	41 56                	push   %r14
  402631:	41 55                	push   %r13
  402633:	41 54                	push   %r12
  402635:	55                   	push   %rbp
  402636:	53                   	push   %rbx
  402637:	48 81 ec 58 a0 00 00 	sub    $0xa058,%rsp
  40263e:	49 89 fd             	mov    %rdi,%r13
  402641:	89 74 24 14          	mov    %esi,0x14(%rsp)
  402645:	49 89 d7             	mov    %rdx,%r15
  402648:	48 89 4c 24 08       	mov    %rcx,0x8(%rsp)
  40264d:	4c 89 44 24 18       	mov    %r8,0x18(%rsp)
  402652:	4d 89 ce             	mov    %r9,%r14
  402655:	48 8b ac 24 90 a0 00 	mov    0xa090(%rsp),%rbp
  40265c:	00 
  40265d:	c7 84 24 2c 20 00 00 	movl   $0x0,0x202c(%rsp)
  402664:	00 00 00 00 
  402668:	ba 00 00 00 00       	mov    $0x0,%edx
  40266d:	be 01 00 00 00       	mov    $0x1,%esi
  402672:	bf 02 00 00 00       	mov    $0x2,%edi
  402677:	e8 a4 eb ff ff       	callq  401220 <socket@plt>
  40267c:	85 c0                	test   %eax,%eax
  40267e:	0f 88 9a 02 00 00    	js     40291e <submitr+0x2f1>
  402684:	89 c3                	mov    %eax,%ebx
  402686:	4c 89 ef             	mov    %r13,%rdi
  402689:	e8 82 ea ff ff       	callq  401110 <gethostbyname@plt>
  40268e:	48 85 c0             	test   %rax,%rax
  402691:	0f 84 d3 02 00 00    	je     40296a <submitr+0x33d>
  402697:	4c 8d a4 24 40 a0 00 	lea    0xa040(%rsp),%r12
  40269e:	00 
  40269f:	48 c7 84 24 42 a0 00 	movq   $0x0,0xa042(%rsp)
  4026a6:	00 00 00 00 00 
  4026ab:	c7 84 24 4a a0 00 00 	movl   $0x0,0xa04a(%rsp)
  4026b2:	00 00 00 00 
  4026b6:	66 c7 84 24 4e a0 00 	movw   $0x0,0xa04e(%rsp)
  4026bd:	00 00 00 
  4026c0:	66 c7 84 24 40 a0 00 	movw   $0x2,0xa040(%rsp)
  4026c7:	00 02 00 
  4026ca:	48 8b 48 18          	mov    0x18(%rax),%rcx
  4026ce:	48 63 50 14          	movslq 0x14(%rax),%rdx
  4026d2:	48 8d bc 24 44 a0 00 	lea    0xa044(%rsp),%rdi
  4026d9:	00 
  4026da:	48 8b 31             	mov    (%rcx),%rsi
  4026dd:	e8 ae ea ff ff       	callq  401190 <memmove@plt>
  4026e2:	0f b7 44 24 14       	movzwl 0x14(%rsp),%eax
  4026e7:	66 c1 c0 08          	rol    $0x8,%ax
  4026eb:	66 89 84 24 42 a0 00 	mov    %ax,0xa042(%rsp)
  4026f2:	00 
  4026f3:	ba 10 00 00 00       	mov    $0x10,%edx
  4026f8:	4c 89 e6             	mov    %r12,%rsi
  4026fb:	89 df                	mov    %ebx,%edi
  4026fd:	e8 fe ea ff ff       	callq  401200 <connect@plt>
  402702:	85 c0                	test   %eax,%eax
  402704:	0f 88 c8 02 00 00    	js     4029d2 <submitr+0x3a5>
  40270a:	48 c7 c6 ff ff ff ff 	mov    $0xffffffffffffffff,%rsi
  402711:	b8 00 00 00 00       	mov    $0x0,%eax
  402716:	48 89 f1             	mov    %rsi,%rcx
  402719:	4c 89 f7             	mov    %r14,%rdi
  40271c:	f2 ae                	repnz scas %es:(%rdi),%al
  40271e:	48 89 ca             	mov    %rcx,%rdx
  402721:	48 f7 d2             	not    %rdx
  402724:	48 89 f1             	mov    %rsi,%rcx
  402727:	4c 89 ff             	mov    %r15,%rdi
  40272a:	f2 ae                	repnz scas %es:(%rdi),%al
  40272c:	48 f7 d1             	not    %rcx
  40272f:	49 89 c8             	mov    %rcx,%r8
  402732:	48 89 f1             	mov    %rsi,%rcx
  402735:	48 8b 7c 24 08       	mov    0x8(%rsp),%rdi
  40273a:	f2 ae                	repnz scas %es:(%rdi),%al
  40273c:	48 f7 d1             	not    %rcx
  40273f:	4d 8d 44 08 fe       	lea    -0x2(%r8,%rcx,1),%r8
  402744:	48 89 f1             	mov    %rsi,%rcx
  402747:	48 8b 7c 24 18       	mov    0x18(%rsp),%rdi
  40274c:	f2 ae                	repnz scas %es:(%rdi),%al
  40274e:	48 89 c8             	mov    %rcx,%rax
  402751:	48 f7 d0             	not    %rax
  402754:	49 8d 4c 00 ff       	lea    -0x1(%r8,%rax,1),%rcx
  402759:	48 8d 44 52 fd       	lea    -0x3(%rdx,%rdx,2),%rax
  40275e:	48 8d 84 01 80 00 00 	lea    0x80(%rcx,%rax,1),%rax
  402765:	00 
  402766:	48 3d 00 20 00 00    	cmp    $0x2000,%rax
  40276c:	0f 87 ba 02 00 00    	ja     402a2c <submitr+0x3ff>
  402772:	48 8d b4 24 30 40 00 	lea    0x4030(%rsp),%rsi
  402779:	00 
  40277a:	b9 00 04 00 00       	mov    $0x400,%ecx
  40277f:	b8 00 00 00 00       	mov    $0x0,%eax
  402784:	48 89 f7             	mov    %rsi,%rdi
  402787:	f3 48 ab             	rep stos %rax,%es:(%rdi)
  40278a:	4c 89 f7             	mov    %r14,%rdi
  40278d:	e8 59 fc ff ff       	callq  4023eb <urlencode>
  402792:	85 c0                	test   %eax,%eax
  402794:	0f 88 05 03 00 00    	js     402a9f <submitr+0x472>
  40279a:	4c 8d a4 24 30 60 00 	lea    0x6030(%rsp),%r12
  4027a1:	00 
  4027a2:	4d 89 e9             	mov    %r13,%r9
  4027a5:	4c 8d 84 24 30 40 00 	lea    0x4030(%rsp),%r8
  4027ac:	00 
  4027ad:	4c 89 f9             	mov    %r15,%rcx
  4027b0:	48 8b 54 24 08       	mov    0x8(%rsp),%rdx
  4027b5:	48 8d 35 2c 1f 00 00 	lea    0x1f2c(%rip),%rsi        # 4046e8 <trans_char+0x38>
  4027bc:	4c 89 e7             	mov    %r12,%rdi
  4027bf:	b8 00 00 00 00       	mov    $0x0,%eax
  4027c4:	e8 17 ea ff ff       	callq  4011e0 <sprintf@plt>
  4027c9:	48 c7 c1 ff ff ff ff 	mov    $0xffffffffffffffff,%rcx
  4027d0:	b8 00 00 00 00       	mov    $0x0,%eax
  4027d5:	4c 89 e7             	mov    %r12,%rdi
  4027d8:	f2 ae                	repnz scas %es:(%rdi),%al
  4027da:	48 89 ca             	mov    %rcx,%rdx
  4027dd:	48 f7 d2             	not    %rdx
  4027e0:	48 8d 52 ff          	lea    -0x1(%rdx),%rdx
  4027e4:	4c 89 e6             	mov    %r12,%rsi
  4027e7:	89 df                	mov    %ebx,%edi
  4027e9:	e8 dc fc ff ff       	callq  4024ca <rio_writen>
  4027ee:	48 85 c0             	test   %rax,%rax
  4027f1:	0f 88 33 03 00 00    	js     402b2a <submitr+0x4fd>
  4027f7:	4c 8d a4 24 30 80 00 	lea    0x8030(%rsp),%r12
  4027fe:	00 
  4027ff:	89 de                	mov    %ebx,%esi
  402801:	4c 89 e7             	mov    %r12,%rdi
  402804:	e8 a5 fb ff ff       	callq  4023ae <rio_readinitb>
  402809:	48 8d b4 24 30 60 00 	lea    0x6030(%rsp),%rsi
  402810:	00 
  402811:	ba 00 20 00 00       	mov    $0x2000,%edx
  402816:	4c 89 e7             	mov    %r12,%rdi
  402819:	e8 93 fd ff ff       	callq  4025b1 <rio_readlineb>
  40281e:	48 85 c0             	test   %rax,%rax
  402821:	0f 8e 72 03 00 00    	jle    402b99 <submitr+0x56c>
  402827:	48 8d 8c 24 2c 20 00 	lea    0x202c(%rsp),%rcx
  40282e:	00 
  40282f:	48 8d 94 24 30 20 00 	lea    0x2030(%rsp),%rdx
  402836:	00 
  402837:	48 8d bc 24 30 60 00 	lea    0x6030(%rsp),%rdi
  40283e:	00 
  40283f:	4c 8d 44 24 20       	lea    0x20(%rsp),%r8
  402844:	48 8d 35 11 1f 00 00 	lea    0x1f11(%rip),%rsi        # 40475c <trans_char+0xac>
  40284b:	b8 00 00 00 00       	mov    $0x0,%eax
  402850:	e8 1b e9 ff ff       	callq  401170 <__isoc99_sscanf@plt>
  402855:	48 8d b4 24 30 60 00 	lea    0x6030(%rsp),%rsi
  40285c:	00 
  40285d:	b9 03 00 00 00       	mov    $0x3,%ecx
  402862:	48 8d 3d 0a 1f 00 00 	lea    0x1f0a(%rip),%rdi        # 404773 <trans_char+0xc3>
  402869:	f3 a6                	repz cmpsb %es:(%rdi),%ds:(%rsi)
  40286b:	0f 97 c0             	seta   %al
  40286e:	1c 00                	sbb    $0x0,%al
  402870:	84 c0                	test   %al,%al
  402872:	0f 84 9f 03 00 00    	je     402c17 <submitr+0x5ea>
  402878:	48 8d b4 24 30 60 00 	lea    0x6030(%rsp),%rsi
  40287f:	00 
  402880:	48 8d bc 24 30 80 00 	lea    0x8030(%rsp),%rdi
  402887:	00 
  402888:	ba 00 20 00 00       	mov    $0x2000,%edx
  40288d:	e8 1f fd ff ff       	callq  4025b1 <rio_readlineb>
  402892:	48 85 c0             	test   %rax,%rax
  402895:	7f be                	jg     402855 <submitr+0x228>
  402897:	48 b8 45 72 72 6f 72 	movabs $0x43203a726f727245,%rax
  40289e:	3a 20 43 
  4028a1:	48 ba 6c 69 65 6e 74 	movabs $0x6e7520746e65696c,%rdx
  4028a8:	20 75 6e 
  4028ab:	48 89 45 00          	mov    %rax,0x0(%rbp)
  4028af:	48 89 55 08          	mov    %rdx,0x8(%rbp)
  4028b3:	48 b8 61 62 6c 65 20 	movabs $0x206f7420656c6261,%rax
  4028ba:	74 6f 20 
  4028bd:	48 ba 72 65 61 64 20 	movabs $0x6165682064616572,%rdx
  4028c4:	68 65 61 
  4028c7:	48 89 45 10          	mov    %rax,0x10(%rbp)
  4028cb:	48 89 55 18          	mov    %rdx,0x18(%rbp)
  4028cf:	48 b8 64 65 72 73 20 	movabs $0x6f72662073726564,%rax
  4028d6:	66 72 6f 
  4028d9:	48 ba 6d 20 74 68 65 	movabs $0x657220656874206d,%rdx
  4028e0:	20 72 65 
  4028e3:	48 89 45 20          	mov    %rax,0x20(%rbp)
  4028e7:	48 89 55 28          	mov    %rdx,0x28(%rbp)
  4028eb:	48 b8 73 75 6c 74 20 	movabs $0x72657320746c7573,%rax
  4028f2:	73 65 72 
  4028f5:	48 89 45 30          	mov    %rax,0x30(%rbp)
  4028f9:	c7 45 38 76 65 72 00 	movl   $0x726576,0x38(%rbp)
  402900:	89 df                	mov    %ebx,%edi
  402902:	e8 d9 e7 ff ff       	callq  4010e0 <close@plt>
  402907:	b8 ff ff ff ff       	mov    $0xffffffff,%eax
  40290c:	48 81 c4 58 a0 00 00 	add    $0xa058,%rsp
  402913:	5b                   	pop    %rbx
  402914:	5d                   	pop    %rbp
  402915:	41 5c                	pop    %r12
  402917:	41 5d                	pop    %r13
  402919:	41 5e                	pop    %r14
  40291b:	41 5f                	pop    %r15
  40291d:	c3                   	retq   
  40291e:	48 b8 45 72 72 6f 72 	movabs $0x43203a726f727245,%rax
  402925:	3a 20 43 
  402928:	48 ba 6c 69 65 6e 74 	movabs $0x6e7520746e65696c,%rdx
  40292f:	20 75 6e 
  402932:	48 89 45 00          	mov    %rax,0x0(%rbp)
  402936:	48 89 55 08          	mov    %rdx,0x8(%rbp)
  40293a:	48 b8 61 62 6c 65 20 	movabs $0x206f7420656c6261,%rax
  402941:	74 6f 20 
  402944:	48 ba 63 72 65 61 74 	movabs $0x7320657461657263,%rdx
  40294b:	65 20 73 
  40294e:	48 89 45 10          	mov    %rax,0x10(%rbp)
  402952:	48 89 55 18          	mov    %rdx,0x18(%rbp)
  402956:	c7 45 20 6f 63 6b 65 	movl   $0x656b636f,0x20(%rbp)
  40295d:	66 c7 45 24 74 00    	movw   $0x74,0x24(%rbp)
  402963:	b8 ff ff ff ff       	mov    $0xffffffff,%eax
  402968:	eb a2                	jmp    40290c <submitr+0x2df>
  40296a:	48 b8 45 72 72 6f 72 	movabs $0x44203a726f727245,%rax
  402971:	3a 20 44 
  402974:	48 ba 4e 53 20 69 73 	movabs $0x6e7520736920534e,%rdx
  40297b:	20 75 6e 
  40297e:	48 89 45 00          	mov    %rax,0x0(%rbp)
  402982:	48 89 55 08          	mov    %rdx,0x8(%rbp)
  402986:	48 b8 61 62 6c 65 20 	movabs $0x206f7420656c6261,%rax
  40298d:	74 6f 20 
  402990:	48 ba 72 65 73 6f 6c 	movabs $0x2065766c6f736572,%rdx
  402997:	76 65 20 
  40299a:	48 89 45 10          	mov    %rax,0x10(%rbp)
  40299e:	48 89 55 18          	mov    %rdx,0x18(%rbp)
  4029a2:	48 b8 73 65 72 76 65 	movabs $0x6120726576726573,%rax
  4029a9:	72 20 61 
  4029ac:	48 89 45 20          	mov    %rax,0x20(%rbp)
  4029b0:	c7 45 28 64 64 72 65 	movl   $0x65726464,0x28(%rbp)
  4029b7:	66 c7 45 2c 73 73    	movw   $0x7373,0x2c(%rbp)
  4029bd:	c6 45 2e 00          	movb   $0x0,0x2e(%rbp)
  4029c1:	89 df                	mov    %ebx,%edi
  4029c3:	e8 18 e7 ff ff       	callq  4010e0 <close@plt>
  4029c8:	b8 ff ff ff ff       	mov    $0xffffffff,%eax
  4029cd:	e9 3a ff ff ff       	jmpq   40290c <submitr+0x2df>
  4029d2:	48 b8 45 72 72 6f 72 	movabs $0x55203a726f727245,%rax
  4029d9:	3a 20 55 
  4029dc:	48 ba 6e 61 62 6c 65 	movabs $0x6f7420656c62616e,%rdx
  4029e3:	20 74 6f 
  4029e6:	48 89 45 00          	mov    %rax,0x0(%rbp)
  4029ea:	48 89 55 08          	mov    %rdx,0x8(%rbp)
  4029ee:	48 b8 20 63 6f 6e 6e 	movabs $0x7463656e6e6f6320,%rax
  4029f5:	65 63 74 
  4029f8:	48 ba 20 74 6f 20 74 	movabs $0x20656874206f7420,%rdx
  4029ff:	68 65 20 
  402a02:	48 89 45 10          	mov    %rax,0x10(%rbp)
  402a06:	48 89 55 18          	mov    %rdx,0x18(%rbp)
  402a0a:	c7 45 20 73 65 72 76 	movl   $0x76726573,0x20(%rbp)
  402a11:	66 c7 45 24 65 72    	movw   $0x7265,0x24(%rbp)
  402a17:	c6 45 26 00          	movb   $0x0,0x26(%rbp)
  402a1b:	89 df                	mov    %ebx,%edi
  402a1d:	e8 be e6 ff ff       	callq  4010e0 <close@plt>
  402a22:	b8 ff ff ff ff       	mov    $0xffffffff,%eax
  402a27:	e9 e0 fe ff ff       	jmpq   40290c <submitr+0x2df>
  402a2c:	48 b8 45 72 72 6f 72 	movabs $0x52203a726f727245,%rax
  402a33:	3a 20 52 
  402a36:	48 ba 65 73 75 6c 74 	movabs $0x747320746c757365,%rdx
  402a3d:	20 73 74 
  402a40:	48 89 45 00          	mov    %rax,0x0(%rbp)
  402a44:	48 89 55 08          	mov    %rdx,0x8(%rbp)
  402a48:	48 b8 72 69 6e 67 20 	movabs $0x6f6f7420676e6972,%rax
  402a4f:	74 6f 6f 
  402a52:	48 ba 20 6c 61 72 67 	movabs $0x202e656772616c20,%rdx
  402a59:	65 2e 20 
  402a5c:	48 89 45 10          	mov    %rax,0x10(%rbp)
  402a60:	48 89 55 18          	mov    %rdx,0x18(%rbp)
  402a64:	48 b8 49 6e 63 72 65 	movabs $0x6573616572636e49,%rax
  402a6b:	61 73 65 
  402a6e:	48 ba 20 53 55 42 4d 	movabs $0x5254494d42555320,%rdx
  402a75:	49 54 52 
  402a78:	48 89 45 20          	mov    %rax,0x20(%rbp)
  402a7c:	48 89 55 28          	mov    %rdx,0x28(%rbp)
  402a80:	48 b8 5f 4d 41 58 42 	movabs $0x46554258414d5f,%rax
  402a87:	55 46 00 
  402a8a:	48 89 45 30          	mov    %rax,0x30(%rbp)
  402a8e:	89 df                	mov    %ebx,%edi
  402a90:	e8 4b e6 ff ff       	callq  4010e0 <close@plt>
  402a95:	b8 ff ff ff ff       	mov    $0xffffffff,%eax
  402a9a:	e9 6d fe ff ff       	jmpq   40290c <submitr+0x2df>
  402a9f:	48 b8 45 72 72 6f 72 	movabs $0x52203a726f727245,%rax
  402aa6:	3a 20 52 
  402aa9:	48 ba 65 73 75 6c 74 	movabs $0x747320746c757365,%rdx
  402ab0:	20 73 74 
  402ab3:	48 89 45 00          	mov    %rax,0x0(%rbp)
  402ab7:	48 89 55 08          	mov    %rdx,0x8(%rbp)
  402abb:	48 b8 72 69 6e 67 20 	movabs $0x6e6f6320676e6972,%rax
  402ac2:	63 6f 6e 
  402ac5:	48 ba 74 61 69 6e 73 	movabs $0x6e6120736e696174,%rdx
  402acc:	20 61 6e 
  402acf:	48 89 45 10          	mov    %rax,0x10(%rbp)
  402ad3:	48 89 55 18          	mov    %rdx,0x18(%rbp)
  402ad7:	48 b8 20 69 6c 6c 65 	movabs $0x6c6167656c6c6920,%rax
  402ade:	67 61 6c 
  402ae1:	48 ba 20 6f 72 20 75 	movabs $0x72706e7520726f20,%rdx
  402ae8:	6e 70 72 
  402aeb:	48 89 45 20          	mov    %rax,0x20(%rbp)
  402aef:	48 89 55 28          	mov    %rdx,0x28(%rbp)
  402af3:	48 b8 69 6e 74 61 62 	movabs $0x20656c6261746e69,%rax
  402afa:	6c 65 20 
  402afd:	48 ba 63 68 61 72 61 	movabs $0x6574636172616863,%rdx
  402b04:	63 74 65 
  402b07:	48 89 45 30          	mov    %rax,0x30(%rbp)
  402b0b:	48 89 55 38          	mov    %rdx,0x38(%rbp)
  402b0f:	66 c7 45 40 72 2e    	movw   $0x2e72,0x40(%rbp)
  402b15:	c6 45 42 00          	movb   $0x0,0x42(%rbp)
  402b19:	89 df                	mov    %ebx,%edi
  402b1b:	e8 c0 e5 ff ff       	callq  4010e0 <close@plt>
  402b20:	b8 ff ff ff ff       	mov    $0xffffffff,%eax
  402b25:	e9 e2 fd ff ff       	jmpq   40290c <submitr+0x2df>
  402b2a:	48 b8 45 72 72 6f 72 	movabs $0x43203a726f727245,%rax
  402b31:	3a 20 43 
  402b34:	48 ba 6c 69 65 6e 74 	movabs $0x6e7520746e65696c,%rdx
  402b3b:	20 75 6e 
  402b3e:	48 89 45 00          	mov    %rax,0x0(%rbp)
  402b42:	48 89 55 08          	mov    %rdx,0x8(%rbp)
  402b46:	48 b8 61 62 6c 65 20 	movabs $0x206f7420656c6261,%rax
  402b4d:	74 6f 20 
  402b50:	48 ba 77 72 69 74 65 	movabs $0x6f74206574697277,%rdx
  402b57:	20 74 6f 
  402b5a:	48 89 45 10          	mov    %rax,0x10(%rbp)
  402b5e:	48 89 55 18          	mov    %rdx,0x18(%rbp)
  402b62:	48 b8 20 74 68 65 20 	movabs $0x7365722065687420,%rax
  402b69:	72 65 73 
  402b6c:	48 ba 75 6c 74 20 73 	movabs $0x7672657320746c75,%rdx
  402b73:	65 72 76 
  402b76:	48 89 45 20          	mov    %rax,0x20(%rbp)
  402b7a:	48 89 55 28          	mov    %rdx,0x28(%rbp)
  402b7e:	66 c7 45 30 65 72    	movw   $0x7265,0x30(%rbp)
  402b84:	c6 45 32 00          	movb   $0x0,0x32(%rbp)
  402b88:	89 df                	mov    %ebx,%edi
  402b8a:	e8 51 e5 ff ff       	callq  4010e0 <close@plt>
  402b8f:	b8 ff ff ff ff       	mov    $0xffffffff,%eax
  402b94:	e9 73 fd ff ff       	jmpq   40290c <submitr+0x2df>
  402b99:	48 b8 45 72 72 6f 72 	movabs $0x43203a726f727245,%rax
  402ba0:	3a 20 43 
  402ba3:	48 ba 6c 69 65 6e 74 	movabs $0x6e7520746e65696c,%rdx
  402baa:	20 75 6e 
  402bad:	48 89 45 00          	mov    %rax,0x0(%rbp)
  402bb1:	48 89 55 08          	mov    %rdx,0x8(%rbp)
  402bb5:	48 b8 61 62 6c 65 20 	movabs $0x206f7420656c6261,%rax
  402bbc:	74 6f 20 
  402bbf:	48 ba 72 65 61 64 20 	movabs $0x7269662064616572,%rdx
  402bc6:	66 69 72 
  402bc9:	48 89 45 10          	mov    %rax,0x10(%rbp)
  402bcd:	48 89 55 18          	mov    %rdx,0x18(%rbp)
  402bd1:	48 b8 73 74 20 68 65 	movabs $0x6564616568207473,%rax
  402bd8:	61 64 65 
  402bdb:	48 ba 72 20 66 72 6f 	movabs $0x72206d6f72662072,%rdx
  402be2:	6d 20 72 
  402be5:	48 89 45 20          	mov    %rax,0x20(%rbp)
  402be9:	48 89 55 28          	mov    %rdx,0x28(%rbp)
  402bed:	48 b8 65 73 75 6c 74 	movabs $0x657320746c757365,%rax
  402bf4:	20 73 65 
  402bf7:	48 89 45 30          	mov    %rax,0x30(%rbp)
  402bfb:	c7 45 38 72 76 65 72 	movl   $0x72657672,0x38(%rbp)
  402c02:	c6 45 3c 00          	movb   $0x0,0x3c(%rbp)
  402c06:	89 df                	mov    %ebx,%edi
  402c08:	e8 d3 e4 ff ff       	callq  4010e0 <close@plt>
  402c0d:	b8 ff ff ff ff       	mov    $0xffffffff,%eax
  402c12:	e9 f5 fc ff ff       	jmpq   40290c <submitr+0x2df>
  402c17:	48 8d b4 24 30 60 00 	lea    0x6030(%rsp),%rsi
  402c1e:	00 
  402c1f:	48 8d bc 24 30 80 00 	lea    0x8030(%rsp),%rdi
  402c26:	00 
  402c27:	ba 00 20 00 00       	mov    $0x2000,%edx
  402c2c:	e8 80 f9 ff ff       	callq  4025b1 <rio_readlineb>
  402c31:	48 85 c0             	test   %rax,%rax
  402c34:	0f 8e 97 00 00 00    	jle    402cd1 <submitr+0x6a4>
  402c3a:	8b 94 24 2c 20 00 00 	mov    0x202c(%rsp),%edx
  402c41:	81 fa c8 00 00 00    	cmp    $0xc8,%edx
  402c47:	0f 85 08 01 00 00    	jne    402d55 <submitr+0x728>
  402c4d:	48 8d b4 24 30 60 00 	lea    0x6030(%rsp),%rsi
  402c54:	00 
  402c55:	48 89 ef             	mov    %rbp,%rdi
  402c58:	e8 13 e4 ff ff       	callq  401070 <strcpy@plt>
  402c5d:	89 df                	mov    %ebx,%edi
  402c5f:	e8 7c e4 ff ff       	callq  4010e0 <close@plt>
  402c64:	b9 04 00 00 00       	mov    $0x4,%ecx
  402c69:	48 8d 3d fd 1a 00 00 	lea    0x1afd(%rip),%rdi        # 40476d <trans_char+0xbd>
  402c70:	48 89 ee             	mov    %rbp,%rsi
  402c73:	f3 a6                	repz cmpsb %es:(%rdi),%ds:(%rsi)
  402c75:	0f 97 c0             	seta   %al
  402c78:	1c 00                	sbb    $0x0,%al
  402c7a:	0f be c0             	movsbl %al,%eax
  402c7d:	85 c0                	test   %eax,%eax
  402c7f:	0f 84 87 fc ff ff    	je     40290c <submitr+0x2df>
  402c85:	b9 05 00 00 00       	mov    $0x5,%ecx
  402c8a:	48 8d 3d e0 1a 00 00 	lea    0x1ae0(%rip),%rdi        # 404771 <trans_char+0xc1>
  402c91:	48 89 ee             	mov    %rbp,%rsi
  402c94:	f3 a6                	repz cmpsb %es:(%rdi),%ds:(%rsi)
  402c96:	0f 97 c0             	seta   %al
  402c99:	1c 00                	sbb    $0x0,%al
  402c9b:	0f be c0             	movsbl %al,%eax
  402c9e:	85 c0                	test   %eax,%eax
  402ca0:	0f 84 66 fc ff ff    	je     40290c <submitr+0x2df>
  402ca6:	b9 03 00 00 00       	mov    $0x3,%ecx
  402cab:	48 8d 3d c4 1a 00 00 	lea    0x1ac4(%rip),%rdi        # 404776 <trans_char+0xc6>
  402cb2:	48 89 ee             	mov    %rbp,%rsi
  402cb5:	f3 a6                	repz cmpsb %es:(%rdi),%ds:(%rsi)
  402cb7:	0f 97 c0             	seta   %al
  402cba:	1c 00                	sbb    $0x0,%al
  402cbc:	0f be c0             	movsbl %al,%eax
  402cbf:	85 c0                	test   %eax,%eax
  402cc1:	0f 84 45 fc ff ff    	je     40290c <submitr+0x2df>
  402cc7:	b8 ff ff ff ff       	mov    $0xffffffff,%eax
  402ccc:	e9 3b fc ff ff       	jmpq   40290c <submitr+0x2df>
  402cd1:	48 b8 45 72 72 6f 72 	movabs $0x43203a726f727245,%rax
  402cd8:	3a 20 43 
  402cdb:	48 ba 6c 69 65 6e 74 	movabs $0x6e7520746e65696c,%rdx
  402ce2:	20 75 6e 
  402ce5:	48 89 45 00          	mov    %rax,0x0(%rbp)
  402ce9:	48 89 55 08          	mov    %rdx,0x8(%rbp)
  402ced:	48 b8 61 62 6c 65 20 	movabs $0x206f7420656c6261,%rax
  402cf4:	74 6f 20 
  402cf7:	48 ba 72 65 61 64 20 	movabs $0x6174732064616572,%rdx
  402cfe:	73 74 61 
  402d01:	48 89 45 10          	mov    %rax,0x10(%rbp)
  402d05:	48 89 55 18          	mov    %rdx,0x18(%rbp)
  402d09:	48 b8 74 75 73 20 6d 	movabs $0x7373656d20737574,%rax
  402d10:	65 73 73 
  402d13:	48 ba 61 67 65 20 66 	movabs $0x6d6f726620656761,%rdx
  402d1a:	72 6f 6d 
  402d1d:	48 89 45 20          	mov    %rax,0x20(%rbp)
  402d21:	48 89 55 28          	mov    %rdx,0x28(%rbp)
  402d25:	48 b8 20 72 65 73 75 	movabs $0x20746c7573657220,%rax
  402d2c:	6c 74 20 
  402d2f:	48 89 45 30          	mov    %rax,0x30(%rbp)
  402d33:	c7 45 38 73 65 72 76 	movl   $0x76726573,0x38(%rbp)
  402d3a:	66 c7 45 3c 65 72    	movw   $0x7265,0x3c(%rbp)
  402d40:	c6 45 3e 00          	movb   $0x0,0x3e(%rbp)
  402d44:	89 df                	mov    %ebx,%edi
  402d46:	e8 95 e3 ff ff       	callq  4010e0 <close@plt>
  402d4b:	b8 ff ff ff ff       	mov    $0xffffffff,%eax
  402d50:	e9 b7 fb ff ff       	jmpq   40290c <submitr+0x2df>
  402d55:	48 8d 4c 24 20       	lea    0x20(%rsp),%rcx
  402d5a:	48 8d 35 c7 19 00 00 	lea    0x19c7(%rip),%rsi        # 404728 <trans_char+0x78>
  402d61:	48 89 ef             	mov    %rbp,%rdi
  402d64:	b8 00 00 00 00       	mov    $0x0,%eax
  402d69:	e8 72 e4 ff ff       	callq  4011e0 <sprintf@plt>
  402d6e:	89 df                	mov    %ebx,%edi
  402d70:	e8 6b e3 ff ff       	callq  4010e0 <close@plt>
  402d75:	b8 ff ff ff ff       	mov    $0xffffffff,%eax
  402d7a:	e9 8d fb ff ff       	jmpq   40290c <submitr+0x2df>

0000000000402d7f <init_timeout>:
  402d7f:	85 ff                	test   %edi,%edi
  402d81:	74 26                	je     402da9 <init_timeout+0x2a>
  402d83:	53                   	push   %rbx
  402d84:	89 fb                	mov    %edi,%ebx
  402d86:	78 1a                	js     402da2 <init_timeout+0x23>
  402d88:	48 8d 35 31 f6 ff ff 	lea    -0x9cf(%rip),%rsi        # 4023c0 <sigalrm_handler>
  402d8f:	bf 0e 00 00 00       	mov    $0xe,%edi
  402d94:	e8 67 e3 ff ff       	callq  401100 <signal@plt>
  402d99:	89 df                	mov    %ebx,%edi
  402d9b:	e8 30 e3 ff ff       	callq  4010d0 <alarm@plt>
  402da0:	5b                   	pop    %rbx
  402da1:	c3                   	retq   
  402da2:	bb 00 00 00 00       	mov    $0x0,%ebx
  402da7:	eb df                	jmp    402d88 <init_timeout+0x9>
  402da9:	c3                   	retq   

0000000000402daa <init_driver>:
  402daa:	41 54                	push   %r12
  402dac:	55                   	push   %rbp
  402dad:	53                   	push   %rbx
  402dae:	48 83 ec 10          	sub    $0x10,%rsp
  402db2:	49 89 fc             	mov    %rdi,%r12
  402db5:	be 01 00 00 00       	mov    $0x1,%esi
  402dba:	bf 0d 00 00 00       	mov    $0xd,%edi
  402dbf:	e8 3c e3 ff ff       	callq  401100 <signal@plt>
  402dc4:	be 01 00 00 00       	mov    $0x1,%esi
  402dc9:	bf 1d 00 00 00       	mov    $0x1d,%edi
  402dce:	e8 2d e3 ff ff       	callq  401100 <signal@plt>
  402dd3:	be 01 00 00 00       	mov    $0x1,%esi
  402dd8:	bf 1d 00 00 00       	mov    $0x1d,%edi
  402ddd:	e8 1e e3 ff ff       	callq  401100 <signal@plt>
  402de2:	ba 00 00 00 00       	mov    $0x0,%edx
  402de7:	be 01 00 00 00       	mov    $0x1,%esi
  402dec:	bf 02 00 00 00       	mov    $0x2,%edi
  402df1:	e8 2a e4 ff ff       	callq  401220 <socket@plt>
  402df6:	85 c0                	test   %eax,%eax
  402df8:	0f 88 8a 00 00 00    	js     402e88 <init_driver+0xde>
  402dfe:	89 c3                	mov    %eax,%ebx
  402e00:	48 8d 3d 72 19 00 00 	lea    0x1972(%rip),%rdi        # 404779 <trans_char+0xc9>
  402e07:	e8 04 e3 ff ff       	callq  401110 <gethostbyname@plt>
  402e0c:	48 85 c0             	test   %rax,%rax
  402e0f:	0f 84 c6 00 00 00    	je     402edb <init_driver+0x131>
  402e15:	48 89 e5             	mov    %rsp,%rbp
  402e18:	48 c7 44 24 02 00 00 	movq   $0x0,0x2(%rsp)
  402e1f:	00 00 
  402e21:	c7 45 0a 00 00 00 00 	movl   $0x0,0xa(%rbp)
  402e28:	66 c7 45 0e 00 00    	movw   $0x0,0xe(%rbp)
  402e2e:	66 c7 04 24 02 00    	movw   $0x2,(%rsp)
  402e34:	48 8b 48 18          	mov    0x18(%rax),%rcx
  402e38:	48 63 50 14          	movslq 0x14(%rax),%rdx
  402e3c:	48 8d 7d 04          	lea    0x4(%rbp),%rdi
  402e40:	48 8b 31             	mov    (%rcx),%rsi
  402e43:	e8 48 e3 ff ff       	callq  401190 <memmove@plt>
  402e48:	66 c7 44 24 02 3c a4 	movw   $0xa43c,0x2(%rsp)
  402e4f:	ba 10 00 00 00       	mov    $0x10,%edx
  402e54:	48 89 ee             	mov    %rbp,%rsi
  402e57:	89 df                	mov    %ebx,%edi
  402e59:	e8 a2 e3 ff ff       	callq  401200 <connect@plt>
  402e5e:	85 c0                	test   %eax,%eax
  402e60:	0f 88 e7 00 00 00    	js     402f4d <init_driver+0x1a3>
  402e66:	89 df                	mov    %ebx,%edi
  402e68:	e8 73 e2 ff ff       	callq  4010e0 <close@plt>
  402e6d:	66 41 c7 04 24 4f 4b 	movw   $0x4b4f,(%r12)
  402e74:	41 c6 44 24 02 00    	movb   $0x0,0x2(%r12)
  402e7a:	b8 00 00 00 00       	mov    $0x0,%eax
  402e7f:	48 83 c4 10          	add    $0x10,%rsp
  402e83:	5b                   	pop    %rbx
  402e84:	5d                   	pop    %rbp
  402e85:	41 5c                	pop    %r12
  402e87:	c3                   	retq   
  402e88:	48 b8 45 72 72 6f 72 	movabs $0x43203a726f727245,%rax
  402e8f:	3a 20 43 
  402e92:	48 ba 6c 69 65 6e 74 	movabs $0x6e7520746e65696c,%rdx
  402e99:	20 75 6e 
  402e9c:	49 89 04 24          	mov    %rax,(%r12)
  402ea0:	49 89 54 24 08       	mov    %rdx,0x8(%r12)
  402ea5:	48 b8 61 62 6c 65 20 	movabs $0x206f7420656c6261,%rax
  402eac:	74 6f 20 
  402eaf:	48 ba 63 72 65 61 74 	movabs $0x7320657461657263,%rdx
  402eb6:	65 20 73 
  402eb9:	49 89 44 24 10       	mov    %rax,0x10(%r12)
  402ebe:	49 89 54 24 18       	mov    %rdx,0x18(%r12)
  402ec3:	41 c7 44 24 20 6f 63 	movl   $0x656b636f,0x20(%r12)
  402eca:	6b 65 
  402ecc:	66 41 c7 44 24 24 74 	movw   $0x74,0x24(%r12)
  402ed3:	00 
  402ed4:	b8 ff ff ff ff       	mov    $0xffffffff,%eax
  402ed9:	eb a4                	jmp    402e7f <init_driver+0xd5>
  402edb:	48 b8 45 72 72 6f 72 	movabs $0x44203a726f727245,%rax
  402ee2:	3a 20 44 
  402ee5:	48 ba 4e 53 20 69 73 	movabs $0x6e7520736920534e,%rdx
  402eec:	20 75 6e 
  402eef:	49 89 04 24          	mov    %rax,(%r12)
  402ef3:	49 89 54 24 08       	mov    %rdx,0x8(%r12)
  402ef8:	48 b8 61 62 6c 65 20 	movabs $0x206f7420656c6261,%rax
  402eff:	74 6f 20 
  402f02:	48 ba 72 65 73 6f 6c 	movabs $0x2065766c6f736572,%rdx
  402f09:	76 65 20 
  402f0c:	49 89 44 24 10       	mov    %rax,0x10(%r12)
  402f11:	49 89 54 24 18       	mov    %rdx,0x18(%r12)
  402f16:	48 b8 73 65 72 76 65 	movabs $0x6120726576726573,%rax
  402f1d:	72 20 61 
  402f20:	49 89 44 24 20       	mov    %rax,0x20(%r12)
  402f25:	41 c7 44 24 28 64 64 	movl   $0x65726464,0x28(%r12)
  402f2c:	72 65 
  402f2e:	66 41 c7 44 24 2c 73 	movw   $0x7373,0x2c(%r12)
  402f35:	73 
  402f36:	41 c6 44 24 2e 00    	movb   $0x0,0x2e(%r12)
  402f3c:	89 df                	mov    %ebx,%edi
  402f3e:	e8 9d e1 ff ff       	callq  4010e0 <close@plt>
  402f43:	b8 ff ff ff ff       	mov    $0xffffffff,%eax
  402f48:	e9 32 ff ff ff       	jmpq   402e7f <init_driver+0xd5>
  402f4d:	48 b8 45 72 72 6f 72 	movabs $0x55203a726f727245,%rax
  402f54:	3a 20 55 
  402f57:	48 ba 6e 61 62 6c 65 	movabs $0x6f7420656c62616e,%rdx
  402f5e:	20 74 6f 
  402f61:	49 89 04 24          	mov    %rax,(%r12)
  402f65:	49 89 54 24 08       	mov    %rdx,0x8(%r12)
  402f6a:	48 b8 20 63 6f 6e 6e 	movabs $0x7463656e6e6f6320,%rax
  402f71:	65 63 74 
  402f74:	48 ba 20 74 6f 20 73 	movabs $0x76726573206f7420,%rdx
  402f7b:	65 72 76 
  402f7e:	49 89 44 24 10       	mov    %rax,0x10(%r12)
  402f83:	49 89 54 24 18       	mov    %rdx,0x18(%r12)
  402f88:	66 41 c7 44 24 20 65 	movw   $0x7265,0x20(%r12)
  402f8f:	72 
  402f90:	41 c6 44 24 22 00    	movb   $0x0,0x22(%r12)
  402f96:	89 df                	mov    %ebx,%edi
  402f98:	e8 43 e1 ff ff       	callq  4010e0 <close@plt>
  402f9d:	b8 ff ff ff ff       	mov    $0xffffffff,%eax
  402fa2:	e9 d8 fe ff ff       	jmpq   402e7f <init_driver+0xd5>

0000000000402fa7 <driver_post>:
  402fa7:	53                   	push   %rbx
  402fa8:	4c 89 cb             	mov    %r9,%rbx
  402fab:	45 85 c0             	test   %r8d,%r8d
  402fae:	75 18                	jne    402fc8 <driver_post+0x21>
  402fb0:	48 85 ff             	test   %rdi,%rdi
  402fb3:	74 05                	je     402fba <driver_post+0x13>
  402fb5:	80 3f 00             	cmpb   $0x0,(%rdi)
  402fb8:	75 32                	jne    402fec <driver_post+0x45>
  402fba:	66 c7 03 4f 4b       	movw   $0x4b4f,(%rbx)
  402fbf:	c6 43 02 00          	movb   $0x0,0x2(%rbx)
  402fc3:	44 89 c0             	mov    %r8d,%eax
  402fc6:	5b                   	pop    %rbx
  402fc7:	c3                   	retq   
  402fc8:	48 89 ce             	mov    %rcx,%rsi
  402fcb:	48 8d 3d b5 17 00 00 	lea    0x17b5(%rip),%rdi        # 404787 <trans_char+0xd7>
  402fd2:	b8 00 00 00 00       	mov    $0x0,%eax
  402fd7:	e8 d4 e0 ff ff       	callq  4010b0 <printf@plt>
  402fdc:	66 c7 03 4f 4b       	movw   $0x4b4f,(%rbx)
  402fe1:	c6 43 02 00          	movb   $0x0,0x2(%rbx)
  402fe5:	b8 00 00 00 00       	mov    $0x0,%eax
  402fea:	eb da                	jmp    402fc6 <driver_post+0x1f>
  402fec:	48 83 ec 08          	sub    $0x8,%rsp
  402ff0:	41 51                	push   %r9
  402ff2:	49 89 c9             	mov    %rcx,%r9
  402ff5:	49 89 d0             	mov    %rdx,%r8
  402ff8:	48 89 f9             	mov    %rdi,%rcx
  402ffb:	48 89 f2             	mov    %rsi,%rdx
  402ffe:	be a4 3c 00 00       	mov    $0x3ca4,%esi
  403003:	48 8d 3d 6f 17 00 00 	lea    0x176f(%rip),%rdi        # 404779 <trans_char+0xc9>
  40300a:	e8 1e f6 ff ff       	callq  40262d <submitr>
  40300f:	48 83 c4 10          	add    $0x10,%rsp
  403013:	eb b1                	jmp    402fc6 <driver_post+0x1f>

0000000000403015 <check>:
  403015:	89 f8                	mov    %edi,%eax
  403017:	c1 e8 1c             	shr    $0x1c,%eax
  40301a:	74 1d                	je     403039 <check+0x24>
  40301c:	b9 00 00 00 00       	mov    $0x0,%ecx
  403021:	83 f9 1f             	cmp    $0x1f,%ecx
  403024:	7f 0d                	jg     403033 <check+0x1e>
  403026:	89 f8                	mov    %edi,%eax
  403028:	d3 e8                	shr    %cl,%eax
  40302a:	3c 0a                	cmp    $0xa,%al
  40302c:	74 11                	je     40303f <check+0x2a>
  40302e:	83 c1 08             	add    $0x8,%ecx
  403031:	eb ee                	jmp    403021 <check+0xc>
  403033:	b8 01 00 00 00       	mov    $0x1,%eax
  403038:	c3                   	retq   
  403039:	b8 00 00 00 00       	mov    $0x0,%eax
  40303e:	c3                   	retq   
  40303f:	b8 00 00 00 00       	mov    $0x0,%eax
  403044:	c3                   	retq   

0000000000403045 <gencookie>:
  403045:	53                   	push   %rbx
  403046:	83 c7 01             	add    $0x1,%edi
  403049:	e8 02 e0 ff ff       	callq  401050 <srandom@plt>
  40304e:	e8 0d e1 ff ff       	callq  401160 <random@plt>
  403053:	89 c3                	mov    %eax,%ebx
  403055:	89 c7                	mov    %eax,%edi
  403057:	e8 b9 ff ff ff       	callq  403015 <check>
  40305c:	85 c0                	test   %eax,%eax
  40305e:	74 ee                	je     40304e <gencookie+0x9>
  403060:	89 d8                	mov    %ebx,%eax
  403062:	5b                   	pop    %rbx
  403063:	c3                   	retq   
  403064:	66 2e 0f 1f 84 00 00 	nopw   %cs:0x0(%rax,%rax,1)
  40306b:	00 00 00 
  40306e:	66 90                	xchg   %ax,%ax

0000000000403070 <__libc_csu_init>:
  403070:	41 57                	push   %r15
  403072:	49 89 d7             	mov    %rdx,%r15
  403075:	41 56                	push   %r14
  403077:	49 89 f6             	mov    %rsi,%r14
  40307a:	41 55                	push   %r13
  40307c:	41 89 fd             	mov    %edi,%r13d
  40307f:	41 54                	push   %r12
  403081:	4c 8d 25 88 3d 00 00 	lea    0x3d88(%rip),%r12        # 406e10 <__frame_dummy_init_array_entry>
  403088:	55                   	push   %rbp
  403089:	48 8d 2d 88 3d 00 00 	lea    0x3d88(%rip),%rbp        # 406e18 <__init_array_end>
  403090:	53                   	push   %rbx
  403091:	4c 29 e5             	sub    %r12,%rbp
  403094:	48 83 ec 08          	sub    $0x8,%rsp
  403098:	e8 63 df ff ff       	callq  401000 <_init>
  40309d:	48 c1 fd 03          	sar    $0x3,%rbp
  4030a1:	74 1b                	je     4030be <__libc_csu_init+0x4e>
  4030a3:	31 db                	xor    %ebx,%ebx
  4030a5:	0f 1f 00             	nopl   (%rax)
  4030a8:	4c 89 fa             	mov    %r15,%rdx
  4030ab:	4c 89 f6             	mov    %r14,%rsi
  4030ae:	44 89 ef             	mov    %r13d,%edi
  4030b1:	41 ff 14 dc          	callq  *(%r12,%rbx,8)
  4030b5:	48 83 c3 01          	add    $0x1,%rbx
  4030b9:	48 39 dd             	cmp    %rbx,%rbp
  4030bc:	75 ea                	jne    4030a8 <__libc_csu_init+0x38>
  4030be:	48 83 c4 08          	add    $0x8,%rsp
  4030c2:	5b                   	pop    %rbx
  4030c3:	5d                   	pop    %rbp
  4030c4:	41 5c                	pop    %r12
  4030c6:	41 5d                	pop    %r13
  4030c8:	41 5e                	pop    %r14
  4030ca:	41 5f                	pop    %r15
  4030cc:	c3                   	retq   
  4030cd:	0f 1f 00             	nopl   (%rax)

00000000004030d0 <__libc_csu_fini>:
  4030d0:	c3                   	retq   

Disassembly of section .fini:

00000000004030d4 <_fini>:
  4030d4:	48 83 ec 08          	sub    $0x8,%rsp
  4030d8:	48 83 c4 08          	add    $0x8,%rsp
  4030dc:	c3                   	retq   
