
bomb:     file format elf64-x86-64


Disassembly of section .init:

0000000000401000 <_init>:
  401000:	48 83 ec 08          	sub    $0x8,%rsp
  401004:	48 8b 05 ed 3f 00 00 	mov    0x3fed(%rip),%rax        # 404ff8 <__gmon_start__>
  40100b:	48 85 c0             	test   %rax,%rax
  40100e:	74 02                	je     401012 <_init+0x12>
  401010:	ff d0                	callq  *%rax
  401012:	48 83 c4 08          	add    $0x8,%rsp
  401016:	c3                   	retq   

Disassembly of section .plt:

0000000000401020 <.plt>:
  401020:	ff 35 e2 3f 00 00    	pushq  0x3fe2(%rip)        # 405008 <_GLOBAL_OFFSET_TABLE_+0x8>
  401026:	ff 25 e4 3f 00 00    	jmpq   *0x3fe4(%rip)        # 405010 <_GLOBAL_OFFSET_TABLE_+0x10>
  40102c:	0f 1f 40 00          	nopl   0x0(%rax)

0000000000401030 <getenv@plt>:
  401030:	ff 25 e2 3f 00 00    	jmpq   *0x3fe2(%rip)        # 405018 <getenv@GLIBC_2.2.5>
  401036:	68 00 00 00 00       	pushq  $0x0
  40103b:	e9 e0 ff ff ff       	jmpq   401020 <.plt>

0000000000401040 <__errno_location@plt>:
  401040:	ff 25 da 3f 00 00    	jmpq   *0x3fda(%rip)        # 405020 <__errno_location@GLIBC_2.2.5>
  401046:	68 01 00 00 00       	pushq  $0x1
  40104b:	e9 d0 ff ff ff       	jmpq   401020 <.plt>

0000000000401050 <strcpy@plt>:
  401050:	ff 25 d2 3f 00 00    	jmpq   *0x3fd2(%rip)        # 405028 <strcpy@GLIBC_2.2.5>
  401056:	68 02 00 00 00       	pushq  $0x2
  40105b:	e9 c0 ff ff ff       	jmpq   401020 <.plt>

0000000000401060 <puts@plt>:
  401060:	ff 25 ca 3f 00 00    	jmpq   *0x3fca(%rip)        # 405030 <puts@GLIBC_2.2.5>
  401066:	68 03 00 00 00       	pushq  $0x3
  40106b:	e9 b0 ff ff ff       	jmpq   401020 <.plt>

0000000000401070 <write@plt>:
  401070:	ff 25 c2 3f 00 00    	jmpq   *0x3fc2(%rip)        # 405038 <write@GLIBC_2.2.5>
  401076:	68 04 00 00 00       	pushq  $0x4
  40107b:	e9 a0 ff ff ff       	jmpq   401020 <.plt>

0000000000401080 <fclose@plt>:
  401080:	ff 25 ba 3f 00 00    	jmpq   *0x3fba(%rip)        # 405040 <fclose@GLIBC_2.2.5>
  401086:	68 05 00 00 00       	pushq  $0x5
  40108b:	e9 90 ff ff ff       	jmpq   401020 <.plt>

0000000000401090 <system@plt>:
  401090:	ff 25 b2 3f 00 00    	jmpq   *0x3fb2(%rip)        # 405048 <system@GLIBC_2.2.5>
  401096:	68 06 00 00 00       	pushq  $0x6
  40109b:	e9 80 ff ff ff       	jmpq   401020 <.plt>

00000000004010a0 <printf@plt>:
  4010a0:	ff 25 aa 3f 00 00    	jmpq   *0x3faa(%rip)        # 405050 <printf@GLIBC_2.2.5>
  4010a6:	68 07 00 00 00       	pushq  $0x7
  4010ab:	e9 70 ff ff ff       	jmpq   401020 <.plt>

00000000004010b0 <rewind@plt>:
  4010b0:	ff 25 a2 3f 00 00    	jmpq   *0x3fa2(%rip)        # 405058 <rewind@GLIBC_2.2.5>
  4010b6:	68 08 00 00 00       	pushq  $0x8
  4010bb:	e9 60 ff ff ff       	jmpq   401020 <.plt>

00000000004010c0 <dup@plt>:
  4010c0:	ff 25 9a 3f 00 00    	jmpq   *0x3f9a(%rip)        # 405060 <dup@GLIBC_2.2.5>
  4010c6:	68 09 00 00 00       	pushq  $0x9
  4010cb:	e9 50 ff ff ff       	jmpq   401020 <.plt>

00000000004010d0 <close@plt>:
  4010d0:	ff 25 92 3f 00 00    	jmpq   *0x3f92(%rip)        # 405068 <close@GLIBC_2.2.5>
  4010d6:	68 0a 00 00 00       	pushq  $0xa
  4010db:	e9 40 ff ff ff       	jmpq   401020 <.plt>

00000000004010e0 <fputc@plt>:
  4010e0:	ff 25 8a 3f 00 00    	jmpq   *0x3f8a(%rip)        # 405070 <fputc@GLIBC_2.2.5>
  4010e6:	68 0b 00 00 00       	pushq  $0xb
  4010eb:	e9 30 ff ff ff       	jmpq   401020 <.plt>

00000000004010f0 <fgets@plt>:
  4010f0:	ff 25 82 3f 00 00    	jmpq   *0x3f82(%rip)        # 405078 <fgets@GLIBC_2.2.5>
  4010f6:	68 0c 00 00 00       	pushq  $0xc
  4010fb:	e9 20 ff ff ff       	jmpq   401020 <.plt>

0000000000401100 <tmpfile@plt>:
  401100:	ff 25 7a 3f 00 00    	jmpq   *0x3f7a(%rip)        # 405080 <tmpfile@GLIBC_2.2.5>
  401106:	68 0d 00 00 00       	pushq  $0xd
  40110b:	e9 10 ff ff ff       	jmpq   401020 <.plt>

0000000000401110 <signal@plt>:
  401110:	ff 25 72 3f 00 00    	jmpq   *0x3f72(%rip)        # 405088 <signal@GLIBC_2.2.5>
  401116:	68 0e 00 00 00       	pushq  $0xe
  40111b:	e9 00 ff ff ff       	jmpq   401020 <.plt>

0000000000401120 <gethostbyname@plt>:
  401120:	ff 25 6a 3f 00 00    	jmpq   *0x3f6a(%rip)        # 405090 <gethostbyname@GLIBC_2.2.5>
  401126:	68 0f 00 00 00       	pushq  $0xf
  40112b:	e9 f0 fe ff ff       	jmpq   401020 <.plt>

0000000000401130 <fprintf@plt>:
  401130:	ff 25 62 3f 00 00    	jmpq   *0x3f62(%rip)        # 405098 <fprintf@GLIBC_2.2.5>
  401136:	68 10 00 00 00       	pushq  $0x10
  40113b:	e9 e0 fe ff ff       	jmpq   401020 <.plt>

0000000000401140 <strtol@plt>:
  401140:	ff 25 5a 3f 00 00    	jmpq   *0x3f5a(%rip)        # 4050a0 <strtol@GLIBC_2.2.5>
  401146:	68 11 00 00 00       	pushq  $0x11
  40114b:	e9 d0 fe ff ff       	jmpq   401020 <.plt>

0000000000401150 <inet_pton@plt>:
  401150:	ff 25 52 3f 00 00    	jmpq   *0x3f52(%rip)        # 4050a8 <inet_pton@GLIBC_2.2.5>
  401156:	68 12 00 00 00       	pushq  $0x12
  40115b:	e9 c0 fe ff ff       	jmpq   401020 <.plt>

0000000000401160 <fflush@plt>:
  401160:	ff 25 4a 3f 00 00    	jmpq   *0x3f4a(%rip)        # 4050b0 <fflush@GLIBC_2.2.5>
  401166:	68 13 00 00 00       	pushq  $0x13
  40116b:	e9 b0 fe ff ff       	jmpq   401020 <.plt>

0000000000401170 <__isoc99_sscanf@plt>:
  401170:	ff 25 42 3f 00 00    	jmpq   *0x3f42(%rip)        # 4050b8 <__isoc99_sscanf@GLIBC_2.7>
  401176:	68 14 00 00 00       	pushq  $0x14
  40117b:	e9 a0 fe ff ff       	jmpq   401020 <.plt>

0000000000401180 <memmove@plt>:
  401180:	ff 25 3a 3f 00 00    	jmpq   *0x3f3a(%rip)        # 4050c0 <memmove@GLIBC_2.2.5>
  401186:	68 15 00 00 00       	pushq  $0x15
  40118b:	e9 90 fe ff ff       	jmpq   401020 <.plt>

0000000000401190 <cuserid@plt>:
  401190:	ff 25 32 3f 00 00    	jmpq   *0x3f32(%rip)        # 4050c8 <cuserid@GLIBC_2.2.5>
  401196:	68 16 00 00 00       	pushq  $0x16
  40119b:	e9 80 fe ff ff       	jmpq   401020 <.plt>

00000000004011a0 <fopen@plt>:
  4011a0:	ff 25 2a 3f 00 00    	jmpq   *0x3f2a(%rip)        # 4050d0 <fopen@GLIBC_2.2.5>
  4011a6:	68 17 00 00 00       	pushq  $0x17
  4011ab:	e9 70 fe ff ff       	jmpq   401020 <.plt>

00000000004011b0 <strcat@plt>:
  4011b0:	ff 25 22 3f 00 00    	jmpq   *0x3f22(%rip)        # 4050d8 <strcat@GLIBC_2.2.5>
  4011b6:	68 18 00 00 00       	pushq  $0x18
  4011bb:	e9 60 fe ff ff       	jmpq   401020 <.plt>

00000000004011c0 <sprintf@plt>:
  4011c0:	ff 25 1a 3f 00 00    	jmpq   *0x3f1a(%rip)        # 4050e0 <sprintf@GLIBC_2.2.5>
  4011c6:	68 19 00 00 00       	pushq  $0x19
  4011cb:	e9 50 fe ff ff       	jmpq   401020 <.plt>

00000000004011d0 <exit@plt>:
  4011d0:	ff 25 12 3f 00 00    	jmpq   *0x3f12(%rip)        # 4050e8 <exit@GLIBC_2.2.5>
  4011d6:	68 1a 00 00 00       	pushq  $0x1a
  4011db:	e9 40 fe ff ff       	jmpq   401020 <.plt>

00000000004011e0 <connect@plt>:
  4011e0:	ff 25 0a 3f 00 00    	jmpq   *0x3f0a(%rip)        # 4050f0 <connect@GLIBC_2.2.5>
  4011e6:	68 1b 00 00 00       	pushq  $0x1b
  4011eb:	e9 30 fe ff ff       	jmpq   401020 <.plt>

00000000004011f0 <fwrite@plt>:
  4011f0:	ff 25 02 3f 00 00    	jmpq   *0x3f02(%rip)        # 4050f8 <fwrite@GLIBC_2.2.5>
  4011f6:	68 1c 00 00 00       	pushq  $0x1c
  4011fb:	e9 20 fe ff ff       	jmpq   401020 <.plt>

0000000000401200 <sleep@plt>:
  401200:	ff 25 fa 3e 00 00    	jmpq   *0x3efa(%rip)        # 405100 <sleep@GLIBC_2.2.5>
  401206:	68 1d 00 00 00       	pushq  $0x1d
  40120b:	e9 10 fe ff ff       	jmpq   401020 <.plt>

0000000000401210 <__ctype_b_loc@plt>:
  401210:	ff 25 f2 3e 00 00    	jmpq   *0x3ef2(%rip)        # 405108 <__ctype_b_loc@GLIBC_2.3>
  401216:	68 1e 00 00 00       	pushq  $0x1e
  40121b:	e9 00 fe ff ff       	jmpq   401020 <.plt>

0000000000401220 <socket@plt>:
  401220:	ff 25 ea 3e 00 00    	jmpq   *0x3eea(%rip)        # 405110 <socket@GLIBC_2.2.5>
  401226:	68 1f 00 00 00       	pushq  $0x1f
  40122b:	e9 f0 fd ff ff       	jmpq   401020 <.plt>

Disassembly of section .text:

0000000000401230 <_start>:
  401230:	31 ed                	xor    %ebp,%ebp
  401232:	49 89 d1             	mov    %rdx,%r9
  401235:	5e                   	pop    %rsi
  401236:	48 89 e2             	mov    %rsp,%rdx
  401239:	48 83 e4 f0          	and    $0xfffffffffffffff0,%rsp
  40123d:	50                   	push   %rax
  40123e:	54                   	push   %rsp
  40123f:	49 c7 c0 40 23 40 00 	mov    $0x402340,%r8
  401246:	48 c7 c1 e0 22 40 00 	mov    $0x4022e0,%rcx
  40124d:	48 c7 c7 12 13 40 00 	mov    $0x401312,%rdi
  401254:	ff 15 96 3d 00 00    	callq  *0x3d96(%rip)        # 404ff0 <__libc_start_main@GLIBC_2.2.5>
  40125a:	f4                   	hlt    
  40125b:	0f 1f 44 00 00       	nopl   0x0(%rax,%rax,1)

0000000000401260 <_dl_relocate_static_pie>:
  401260:	c3                   	retq   
  401261:	66 2e 0f 1f 84 00 00 	nopw   %cs:0x0(%rax,%rax,1)
  401268:	00 00 00 
  40126b:	0f 1f 44 00 00       	nopl   0x0(%rax,%rax,1)

0000000000401270 <deregister_tm_clones>:
  401270:	b8 a0 57 40 00       	mov    $0x4057a0,%eax
  401275:	48 3d a0 57 40 00    	cmp    $0x4057a0,%rax
  40127b:	74 13                	je     401290 <deregister_tm_clones+0x20>
  40127d:	b8 00 00 00 00       	mov    $0x0,%eax
  401282:	48 85 c0             	test   %rax,%rax
  401285:	74 09                	je     401290 <deregister_tm_clones+0x20>
  401287:	bf a0 57 40 00       	mov    $0x4057a0,%edi
  40128c:	ff e0                	jmpq   *%rax
  40128e:	66 90                	xchg   %ax,%ax
  401290:	c3                   	retq   
  401291:	66 66 2e 0f 1f 84 00 	data16 nopw %cs:0x0(%rax,%rax,1)
  401298:	00 00 00 00 
  40129c:	0f 1f 40 00          	nopl   0x0(%rax)

00000000004012a0 <register_tm_clones>:
  4012a0:	be a0 57 40 00       	mov    $0x4057a0,%esi
  4012a5:	48 81 ee a0 57 40 00 	sub    $0x4057a0,%rsi
  4012ac:	48 c1 fe 03          	sar    $0x3,%rsi
  4012b0:	48 89 f0             	mov    %rsi,%rax
  4012b3:	48 c1 e8 3f          	shr    $0x3f,%rax
  4012b7:	48 01 c6             	add    %rax,%rsi
  4012ba:	48 d1 fe             	sar    %rsi
  4012bd:	74 11                	je     4012d0 <register_tm_clones+0x30>
  4012bf:	b8 00 00 00 00       	mov    $0x0,%eax
  4012c4:	48 85 c0             	test   %rax,%rax
  4012c7:	74 07                	je     4012d0 <register_tm_clones+0x30>
  4012c9:	bf a0 57 40 00       	mov    $0x4057a0,%edi
  4012ce:	ff e0                	jmpq   *%rax
  4012d0:	c3                   	retq   
  4012d1:	66 66 2e 0f 1f 84 00 	data16 nopw %cs:0x0(%rax,%rax,1)
  4012d8:	00 00 00 00 
  4012dc:	0f 1f 40 00          	nopl   0x0(%rax)

00000000004012e0 <__do_global_dtors_aux>:
  4012e0:	80 3d d1 44 00 00 00 	cmpb   $0x0,0x44d1(%rip)        # 4057b8 <completed.7325>
  4012e7:	75 17                	jne    401300 <__do_global_dtors_aux+0x20>
  4012e9:	55                   	push   %rbp
  4012ea:	48 89 e5             	mov    %rsp,%rbp
  4012ed:	e8 7e ff ff ff       	callq  401270 <deregister_tm_clones>
  4012f2:	c6 05 bf 44 00 00 01 	movb   $0x1,0x44bf(%rip)        # 4057b8 <completed.7325>
  4012f9:	5d                   	pop    %rbp
  4012fa:	c3                   	retq   
  4012fb:	0f 1f 44 00 00       	nopl   0x0(%rax,%rax,1)
  401300:	c3                   	retq   
  401301:	66 66 2e 0f 1f 84 00 	data16 nopw %cs:0x0(%rax,%rax,1)
  401308:	00 00 00 00 
  40130c:	0f 1f 40 00          	nopl   0x0(%rax)

0000000000401310 <frame_dummy>:
  401310:	eb 8e                	jmp    4012a0 <register_tm_clones>

0000000000401312 <main>:
  401312:	53                   	push   %rbx
  401313:	83 ff 01             	cmp    $0x1,%edi
  401316:	0f 84 f8 00 00 00    	je     401414 <main+0x102>
  40131c:	48 89 f3             	mov    %rsi,%rbx
  40131f:	83 ff 02             	cmp    $0x2,%edi
  401322:	0f 85 1c 01 00 00    	jne    401444 <main+0x132>
  401328:	48 8b 7e 08          	mov    0x8(%rsi),%rdi
  40132c:	48 8d 35 e0 20 00 00 	lea    0x20e0(%rip),%rsi        # 403413 <array.3191+0x253>
  401333:	e8 68 fe ff ff       	callq  4011a0 <fopen@plt>
  401338:	48 89 05 81 44 00 00 	mov    %rax,0x4481(%rip)        # 4057c0 <infile>
  40133f:	48 85 c0             	test   %rax,%rax
  401342:	0f 84 df 00 00 00    	je     401427 <main+0x115>
  401348:	e8 a0 06 00 00       	callq  4019ed <initialize_bomb>
  40134d:	48 8d 3d 34 1d 00 00 	lea    0x1d34(%rip),%rdi        # 403088 <_IO_stdin_used+0x88>
  401354:	e8 07 fd ff ff       	callq  401060 <puts@plt>
  401359:	48 8d 3d 68 1d 00 00 	lea    0x1d68(%rip),%rdi        # 4030c8 <_IO_stdin_used+0xc8>
  401360:	e8 fb fc ff ff       	callq  401060 <puts@plt>
  401365:	e8 d2 0d 00 00       	callq  40213c <read_line>
  40136a:	48 89 c7             	mov    %rax,%rdi
  40136d:	e8 f0 00 00 00       	callq  401462 <phase_1>
  401372:	e8 c6 0e 00 00       	callq  40223d <phase_defused>
  401377:	48 8d 3d 7a 1d 00 00 	lea    0x1d7a(%rip),%rdi        # 4030f8 <_IO_stdin_used+0xf8>
  40137e:	e8 dd fc ff ff       	callq  401060 <puts@plt>
  401383:	e8 b4 0d 00 00       	callq  40213c <read_line>
  401388:	48 89 c7             	mov    %rax,%rdi
  40138b:	e8 f2 00 00 00       	callq  401482 <phase_2>
  401390:	e8 a8 0e 00 00       	callq  40223d <phase_defused>
  401395:	48 8d 3d 9f 1c 00 00 	lea    0x1c9f(%rip),%rdi        # 40303b <_IO_stdin_used+0x3b>
  40139c:	e8 bf fc ff ff       	callq  401060 <puts@plt>
  4013a1:	e8 96 0d 00 00       	callq  40213c <read_line>
  4013a6:	48 89 c7             	mov    %rax,%rdi
  4013a9:	e8 0f 01 00 00       	callq  4014bd <phase_3>
  4013ae:	e8 8a 0e 00 00       	callq  40223d <phase_defused>
  4013b3:	48 8d 3d 9f 1c 00 00 	lea    0x1c9f(%rip),%rdi        # 403059 <_IO_stdin_used+0x59>
  4013ba:	e8 a1 fc ff ff       	callq  401060 <puts@plt>
  4013bf:	e8 78 0d 00 00       	callq  40213c <read_line>
  4013c4:	48 89 c7             	mov    %rax,%rdi
  4013c7:	e8 dd 01 00 00       	callq  4015a9 <phase_4>
  4013cc:	e8 6c 0e 00 00       	callq  40223d <phase_defused>
  4013d1:	48 8d 3d 50 1d 00 00 	lea    0x1d50(%rip),%rdi        # 403128 <_IO_stdin_used+0x128>
  4013d8:	e8 83 fc ff ff       	callq  401060 <puts@plt>
  4013dd:	e8 5a 0d 00 00       	callq  40213c <read_line>
  4013e2:	48 89 c7             	mov    %rax,%rdi
  4013e5:	e8 06 02 00 00       	callq  4015f0 <phase_5>
  4013ea:	e8 4e 0e 00 00       	callq  40223d <phase_defused>
  4013ef:	48 8d 3d 72 1c 00 00 	lea    0x1c72(%rip),%rdi        # 403068 <_IO_stdin_used+0x68>
  4013f6:	e8 65 fc ff ff       	callq  401060 <puts@plt>
  4013fb:	e8 3c 0d 00 00       	callq  40213c <read_line>
  401400:	48 89 c7             	mov    %rax,%rdi
  401403:	e8 60 02 00 00       	callq  401668 <phase_6>
  401408:	e8 30 0e 00 00       	callq  40223d <phase_defused>
  40140d:	b8 00 00 00 00       	mov    $0x0,%eax
  401412:	5b                   	pop    %rbx
  401413:	c3                   	retq   
  401414:	48 8b 05 95 43 00 00 	mov    0x4395(%rip),%rax        # 4057b0 <stdin@@GLIBC_2.2.5>
  40141b:	48 89 05 9e 43 00 00 	mov    %rax,0x439e(%rip)        # 4057c0 <infile>
  401422:	e9 21 ff ff ff       	jmpq   401348 <main+0x36>
  401427:	48 8b 53 08          	mov    0x8(%rbx),%rdx
  40142b:	48 8b 33             	mov    (%rbx),%rsi
  40142e:	48 8d 3d cf 1b 00 00 	lea    0x1bcf(%rip),%rdi        # 403004 <_IO_stdin_used+0x4>
  401435:	e8 66 fc ff ff       	callq  4010a0 <printf@plt>
  40143a:	bf 08 00 00 00       	mov    $0x8,%edi
  40143f:	e8 8c fd ff ff       	callq  4011d0 <exit@plt>
  401444:	48 8b 36             	mov    (%rsi),%rsi
  401447:	48 8d 3d d3 1b 00 00 	lea    0x1bd3(%rip),%rdi        # 403021 <_IO_stdin_used+0x21>
  40144e:	b8 00 00 00 00       	mov    $0x0,%eax
  401453:	e8 48 fc ff ff       	callq  4010a0 <printf@plt>
  401458:	bf 08 00 00 00       	mov    $0x8,%edi
  40145d:	e8 6e fd ff ff       	callq  4011d0 <exit@plt>

0000000000401462 <phase_1>:
  401462:	48 83 ec 08          	sub    $0x8,%rsp
  401466:	48 8d 35 e3 1c 00 00 	lea    0x1ce3(%rip),%rsi        # 403150 <_IO_stdin_used+0x150>
  40146d:	e8 3e 04 00 00       	callq  4018b0 <strings_not_equal>
  401472:	85 c0                	test   %eax,%eax
  401474:	75 05                	jne    40147b <phase_1+0x19>
  401476:	48 83 c4 08          	add    $0x8,%rsp
  40147a:	c3                   	retq   
  40147b:	e8 3f 0c 00 00       	callq  4020bf <explode_bomb>
  401480:	eb f4                	jmp    401476 <phase_1+0x14>

0000000000401482 <phase_2>:
  401482:	55                   	push   %rbp
  401483:	53                   	push   %rbx
  401484:	48 83 ec 28          	sub    $0x28,%rsp
  401488:	48 89 e5             	mov    %rsp,%rbp
  40148b:	48 89 ee             	mov    %rbp,%rsi
  40148e:	e8 68 0c 00 00       	callq  4020fb <read_six_numbers>
  401493:	48 89 eb             	mov    %rbp,%rbx
  401496:	48 83 c5 14          	add    $0x14,%rbp
  40149a:	eb 0e                	jmp    4014aa <phase_2+0x28>
  40149c:	e8 1e 0c 00 00       	callq  4020bf <explode_bomb>
  4014a1:	48 83 c3 04          	add    $0x4,%rbx
  4014a5:	48 39 eb             	cmp    %rbp,%rbx
  4014a8:	74 0c                	je     4014b6 <phase_2+0x34>
  4014aa:	8b 03                	mov    (%rbx),%eax
  4014ac:	83 c0 05             	add    $0x5,%eax
  4014af:	39 43 04             	cmp    %eax,0x4(%rbx)
  4014b2:	74 ed                	je     4014a1 <phase_2+0x1f>
  4014b4:	eb e6                	jmp    40149c <phase_2+0x1a>
  4014b6:	48 83 c4 28          	add    $0x28,%rsp
  4014ba:	5b                   	pop    %rbx
  4014bb:	5d                   	pop    %rbp
  4014bc:	c3                   	retq   

00000000004014bd <phase_3>:
  4014bd:	48 83 ec 18          	sub    $0x18,%rsp
  4014c1:	48 8d 4c 24 08       	lea    0x8(%rsp),%rcx
  4014c6:	48 8d 54 24 0c       	lea    0xc(%rsp),%rdx
  4014cb:	48 8d 35 4a 20 00 00 	lea    0x204a(%rip),%rsi        # 40351c <array.3191+0x35c>
  4014d2:	b8 00 00 00 00       	mov    $0x0,%eax
  4014d7:	e8 94 fc ff ff       	callq  401170 <__isoc99_sscanf@plt>
  4014dc:	83 f8 01             	cmp    $0x1,%eax
  4014df:	7e 1f                	jle    401500 <phase_3+0x43>
  4014e1:	83 7c 24 0c 07       	cmpl   $0x7,0xc(%rsp)
  4014e6:	0f 87 8b 00 00 00    	ja     401577 <phase_3+0xba>
  4014ec:	8b 44 24 0c          	mov    0xc(%rsp),%eax
  4014f0:	48 8d 15 a9 1c 00 00 	lea    0x1ca9(%rip),%rdx        # 4031a0 <_IO_stdin_used+0x1a0>
  4014f7:	48 63 04 82          	movslq (%rdx,%rax,4),%rax
  4014fb:	48 01 d0             	add    %rdx,%rax
  4014fe:	ff e0                	jmpq   *%rax
  401500:	e8 ba 0b 00 00       	callq  4020bf <explode_bomb>
  401505:	eb da                	jmp    4014e1 <phase_3+0x24>
  401507:	b8 da 03 00 00       	mov    $0x3da,%eax
  40150c:	eb 05                	jmp    401513 <phase_3+0x56>
  40150e:	b8 00 00 00 00       	mov    $0x0,%eax
  401513:	2d ca 00 00 00       	sub    $0xca,%eax
  401518:	05 a0 00 00 00       	add    $0xa0,%eax
  40151d:	2d 41 02 00 00       	sub    $0x241,%eax
  401522:	05 21 01 00 00       	add    $0x121,%eax
  401527:	2d ad 01 00 00       	sub    $0x1ad,%eax
  40152c:	05 ad 01 00 00       	add    $0x1ad,%eax
  401531:	2d f2 00 00 00       	sub    $0xf2,%eax
  401536:	83 7c 24 0c 05       	cmpl   $0x5,0xc(%rsp)
  40153b:	7f 06                	jg     401543 <phase_3+0x86>
  40153d:	39 44 24 08          	cmp    %eax,0x8(%rsp)
  401541:	74 05                	je     401548 <phase_3+0x8b>
  401543:	e8 77 0b 00 00       	callq  4020bf <explode_bomb>
  401548:	48 83 c4 18          	add    $0x18,%rsp
  40154c:	c3                   	retq   
  40154d:	b8 00 00 00 00       	mov    $0x0,%eax
  401552:	eb c4                	jmp    401518 <phase_3+0x5b>
  401554:	b8 00 00 00 00       	mov    $0x0,%eax
  401559:	eb c2                	jmp    40151d <phase_3+0x60>
  40155b:	b8 00 00 00 00       	mov    $0x0,%eax
  401560:	eb c0                	jmp    401522 <phase_3+0x65>
  401562:	b8 00 00 00 00       	mov    $0x0,%eax
  401567:	eb be                	jmp    401527 <phase_3+0x6a>
  401569:	b8 00 00 00 00       	mov    $0x0,%eax
  40156e:	eb bc                	jmp    40152c <phase_3+0x6f>
  401570:	b8 00 00 00 00       	mov    $0x0,%eax
  401575:	eb ba                	jmp    401531 <phase_3+0x74>
  401577:	e8 43 0b 00 00       	callq  4020bf <explode_bomb>
  40157c:	b8 00 00 00 00       	mov    $0x0,%eax
  401581:	eb b3                	jmp    401536 <phase_3+0x79>

0000000000401583 <func4>:
  401583:	b8 01 00 00 00       	mov    $0x1,%eax
  401588:	85 ff                	test   %edi,%edi
  40158a:	7e 1c                	jle    4015a8 <func4+0x25>
  40158c:	48 83 ec 08          	sub    $0x8,%rsp
  401590:	83 ef 01             	sub    $0x1,%edi
  401593:	e8 eb ff ff ff       	callq  401583 <func4>
  401598:	8d 14 c5 00 00 00 00 	lea    0x0(,%rax,8),%edx
  40159f:	29 c2                	sub    %eax,%edx
  4015a1:	89 d0                	mov    %edx,%eax
  4015a3:	48 83 c4 08          	add    $0x8,%rsp
  4015a7:	c3                   	retq   
  4015a8:	c3                   	retq   

00000000004015a9 <phase_4>:
  4015a9:	48 83 ec 18          	sub    $0x18,%rsp
  4015ad:	48 8d 54 24 0c       	lea    0xc(%rsp),%rdx
  4015b2:	48 8d 35 66 1f 00 00 	lea    0x1f66(%rip),%rsi        # 40351f <array.3191+0x35f>
  4015b9:	b8 00 00 00 00       	mov    $0x0,%eax
  4015be:	e8 ad fb ff ff       	callq  401170 <__isoc99_sscanf@plt>
  4015c3:	83 f8 01             	cmp    $0x1,%eax
  4015c6:	75 07                	jne    4015cf <phase_4+0x26>
  4015c8:	83 7c 24 0c 00       	cmpl   $0x0,0xc(%rsp)
  4015cd:	7f 05                	jg     4015d4 <phase_4+0x2b>
  4015cf:	e8 eb 0a 00 00       	callq  4020bf <explode_bomb>
  4015d4:	8b 7c 24 0c          	mov    0xc(%rsp),%edi
  4015d8:	e8 a6 ff ff ff       	callq  401583 <func4>
  4015dd:	3d a7 41 00 00       	cmp    $0x41a7,%eax
  4015e2:	75 05                	jne    4015e9 <phase_4+0x40>
  4015e4:	48 83 c4 18          	add    $0x18,%rsp
  4015e8:	c3                   	retq   
  4015e9:	e8 d1 0a 00 00       	callq  4020bf <explode_bomb>
  4015ee:	eb f4                	jmp    4015e4 <phase_4+0x3b>

00000000004015f0 <phase_5>:
  4015f0:	48 83 ec 18          	sub    $0x18,%rsp
  4015f4:	48 8d 4c 24 08       	lea    0x8(%rsp),%rcx
  4015f9:	48 8d 54 24 0c       	lea    0xc(%rsp),%rdx
  4015fe:	48 8d 35 17 1f 00 00 	lea    0x1f17(%rip),%rsi        # 40351c <array.3191+0x35c>
  401605:	b8 00 00 00 00       	mov    $0x0,%eax
  40160a:	e8 61 fb ff ff       	callq  401170 <__isoc99_sscanf@plt>
  40160f:	83 f8 01             	cmp    $0x1,%eax
  401612:	7e 4d                	jle    401661 <phase_5+0x71>
  401614:	8b 44 24 0c          	mov    0xc(%rsp),%eax
  401618:	83 e0 0f             	and    $0xf,%eax
  40161b:	89 44 24 0c          	mov    %eax,0xc(%rsp)
  40161f:	83 f8 0f             	cmp    $0xf,%eax
  401622:	74 33                	je     401657 <phase_5+0x67>
  401624:	b9 00 00 00 00       	mov    $0x0,%ecx
  401629:	ba 00 00 00 00       	mov    $0x0,%edx
  40162e:	48 8d 35 8b 1b 00 00 	lea    0x1b8b(%rip),%rsi        # 4031c0 <array.3191>
  401635:	83 c2 01             	add    $0x1,%edx
  401638:	48 98                	cltq   
  40163a:	8b 04 86             	mov    (%rsi,%rax,4),%eax
  40163d:	01 c1                	add    %eax,%ecx
  40163f:	83 f8 0f             	cmp    $0xf,%eax
  401642:	75 f1                	jne    401635 <phase_5+0x45>
  401644:	c7 44 24 0c 0f 00 00 	movl   $0xf,0xc(%rsp)
  40164b:	00 
  40164c:	83 fa 0c             	cmp    $0xc,%edx
  40164f:	75 06                	jne    401657 <phase_5+0x67>
  401651:	39 4c 24 08          	cmp    %ecx,0x8(%rsp)
  401655:	74 05                	je     40165c <phase_5+0x6c>
  401657:	e8 63 0a 00 00       	callq  4020bf <explode_bomb>
  40165c:	48 83 c4 18          	add    $0x18,%rsp
  401660:	c3                   	retq   
  401661:	e8 59 0a 00 00       	callq  4020bf <explode_bomb>
  401666:	eb ac                	jmp    401614 <phase_5+0x24>

0000000000401668 <phase_6>:
  401668:	41 57                	push   %r15
  40166a:	41 56                	push   %r14
  40166c:	41 55                	push   %r13
  40166e:	41 54                	push   %r12
  401670:	55                   	push   %rbp
  401671:	53                   	push   %rbx
  401672:	48 83 ec 58          	sub    $0x58,%rsp
  401676:	4c 8d 74 24 30       	lea    0x30(%rsp),%r14
  40167b:	4c 89 f6             	mov    %r14,%rsi
  40167e:	e8 78 0a 00 00       	callq  4020fb <read_six_numbers>
  401683:	4d 89 f4             	mov    %r14,%r12
  401686:	41 bf 01 00 00 00    	mov    $0x1,%r15d
  40168c:	4c 8d 6c 24 30       	lea    0x30(%rsp),%r13
  401691:	e9 a4 00 00 00       	jmpq   40173a <phase_6+0xd2>
  401696:	e8 24 0a 00 00       	callq  4020bf <explode_bomb>
  40169b:	e9 ac 00 00 00       	jmpq   40174c <phase_6+0xe4>
  4016a0:	48 89 e6             	mov    %rsp,%rsi
  4016a3:	49 8d 7c 24 18       	lea    0x18(%r12),%rdi
  4016a8:	41 8b 0c 24          	mov    (%r12),%ecx
  4016ac:	b8 01 00 00 00       	mov    $0x1,%eax
  4016b1:	48 8d 15 98 40 00 00 	lea    0x4098(%rip),%rdx        # 405750 <node1>
  4016b8:	83 f9 01             	cmp    $0x1,%ecx
  4016bb:	7e 0b                	jle    4016c8 <phase_6+0x60>
  4016bd:	48 8b 52 08          	mov    0x8(%rdx),%rdx
  4016c1:	83 c0 01             	add    $0x1,%eax
  4016c4:	39 c8                	cmp    %ecx,%eax
  4016c6:	75 f5                	jne    4016bd <phase_6+0x55>
  4016c8:	48 89 16             	mov    %rdx,(%rsi)
  4016cb:	49 83 c4 04          	add    $0x4,%r12
  4016cf:	48 83 c6 08          	add    $0x8,%rsi
  4016d3:	4c 39 e7             	cmp    %r12,%rdi
  4016d6:	75 d0                	jne    4016a8 <phase_6+0x40>
  4016d8:	48 8b 1c 24          	mov    (%rsp),%rbx
  4016dc:	48 8b 44 24 08       	mov    0x8(%rsp),%rax
  4016e1:	48 89 43 08          	mov    %rax,0x8(%rbx)
  4016e5:	48 8b 54 24 10       	mov    0x10(%rsp),%rdx
  4016ea:	48 89 50 08          	mov    %rdx,0x8(%rax)
  4016ee:	48 8b 44 24 18       	mov    0x18(%rsp),%rax
  4016f3:	48 89 42 08          	mov    %rax,0x8(%rdx)
  4016f7:	48 8b 54 24 20       	mov    0x20(%rsp),%rdx
  4016fc:	48 89 50 08          	mov    %rdx,0x8(%rax)
  401700:	48 8b 44 24 28       	mov    0x28(%rsp),%rax
  401705:	48 89 42 08          	mov    %rax,0x8(%rdx)
  401709:	48 c7 40 08 00 00 00 	movq   $0x0,0x8(%rax)
  401710:	00 
  401711:	bd 05 00 00 00       	mov    $0x5,%ebp
  401716:	eb 4c                	jmp    401764 <phase_6+0xfc>
  401718:	e8 a2 09 00 00       	callq  4020bf <explode_bomb>
  40171d:	48 83 c3 01          	add    $0x1,%rbx
  401721:	83 fb 05             	cmp    $0x5,%ebx
  401724:	7f 0c                	jg     401732 <phase_6+0xca>
  401726:	41 8b 44 9d 00       	mov    0x0(%r13,%rbx,4),%eax
  40172b:	39 45 00             	cmp    %eax,0x0(%rbp)
  40172e:	75 ed                	jne    40171d <phase_6+0xb5>
  401730:	eb e6                	jmp    401718 <phase_6+0xb0>
  401732:	49 83 c7 01          	add    $0x1,%r15
  401736:	49 83 c6 04          	add    $0x4,%r14
  40173a:	4c 89 f5             	mov    %r14,%rbp
  40173d:	41 8b 06             	mov    (%r14),%eax
  401740:	83 e8 01             	sub    $0x1,%eax
  401743:	83 f8 05             	cmp    $0x5,%eax
  401746:	0f 87 4a ff ff ff    	ja     401696 <phase_6+0x2e>
  40174c:	49 83 ff 06          	cmp    $0x6,%r15
  401750:	0f 84 4a ff ff ff    	je     4016a0 <phase_6+0x38>
  401756:	4c 89 fb             	mov    %r15,%rbx
  401759:	eb cb                	jmp    401726 <phase_6+0xbe>
  40175b:	48 8b 5b 08          	mov    0x8(%rbx),%rbx
  40175f:	83 ed 01             	sub    $0x1,%ebp
  401762:	74 11                	je     401775 <phase_6+0x10d>
  401764:	48 8b 43 08          	mov    0x8(%rbx),%rax
  401768:	8b 00                	mov    (%rax),%eax
  40176a:	39 03                	cmp    %eax,(%rbx)
  40176c:	7d ed                	jge    40175b <phase_6+0xf3>
  40176e:	e8 4c 09 00 00       	callq  4020bf <explode_bomb>
  401773:	eb e6                	jmp    40175b <phase_6+0xf3>
  401775:	48 83 c4 58          	add    $0x58,%rsp
  401779:	5b                   	pop    %rbx
  40177a:	5d                   	pop    %rbp
  40177b:	41 5c                	pop    %r12
  40177d:	41 5d                	pop    %r13
  40177f:	41 5e                	pop    %r14
  401781:	41 5f                	pop    %r15
  401783:	c3                   	retq   

0000000000401784 <fun7>:
  401784:	48 85 ff             	test   %rdi,%rdi
  401787:	74 32                	je     4017bb <fun7+0x37>
  401789:	48 83 ec 08          	sub    $0x8,%rsp
  40178d:	8b 17                	mov    (%rdi),%edx
  40178f:	39 f2                	cmp    %esi,%edx
  401791:	7f 0c                	jg     40179f <fun7+0x1b>
  401793:	b8 00 00 00 00       	mov    $0x0,%eax
  401798:	75 12                	jne    4017ac <fun7+0x28>
  40179a:	48 83 c4 08          	add    $0x8,%rsp
  40179e:	c3                   	retq   
  40179f:	48 8b 7f 08          	mov    0x8(%rdi),%rdi
  4017a3:	e8 dc ff ff ff       	callq  401784 <fun7>
  4017a8:	01 c0                	add    %eax,%eax
  4017aa:	eb ee                	jmp    40179a <fun7+0x16>
  4017ac:	48 8b 7f 10          	mov    0x10(%rdi),%rdi
  4017b0:	e8 cf ff ff ff       	callq  401784 <fun7>
  4017b5:	8d 44 00 01          	lea    0x1(%rax,%rax,1),%eax
  4017b9:	eb df                	jmp    40179a <fun7+0x16>
  4017bb:	b8 ff ff ff ff       	mov    $0xffffffff,%eax
  4017c0:	c3                   	retq   

00000000004017c1 <secret_phase>:
  4017c1:	53                   	push   %rbx
  4017c2:	e8 75 09 00 00       	callq  40213c <read_line>
  4017c7:	ba 0a 00 00 00       	mov    $0xa,%edx
  4017cc:	be 00 00 00 00       	mov    $0x0,%esi
  4017d1:	48 89 c7             	mov    %rax,%rdi
  4017d4:	e8 67 f9 ff ff       	callq  401140 <strtol@plt>
  4017d9:	48 89 c3             	mov    %rax,%rbx
  4017dc:	8d 40 ff             	lea    -0x1(%rax),%eax
  4017df:	3d e8 03 00 00       	cmp    $0x3e8,%eax
  4017e4:	77 26                	ja     40180c <secret_phase+0x4b>
  4017e6:	89 de                	mov    %ebx,%esi
  4017e8:	48 8d 3d 81 3e 00 00 	lea    0x3e81(%rip),%rdi        # 405670 <n1>
  4017ef:	e8 90 ff ff ff       	callq  401784 <fun7>
  4017f4:	83 f8 03             	cmp    $0x3,%eax
  4017f7:	75 1a                	jne    401813 <secret_phase+0x52>
  4017f9:	48 8d 3d 78 19 00 00 	lea    0x1978(%rip),%rdi        # 403178 <_IO_stdin_used+0x178>
  401800:	e8 5b f8 ff ff       	callq  401060 <puts@plt>
  401805:	e8 33 0a 00 00       	callq  40223d <phase_defused>
  40180a:	5b                   	pop    %rbx
  40180b:	c3                   	retq   
  40180c:	e8 ae 08 00 00       	callq  4020bf <explode_bomb>
  401811:	eb d3                	jmp    4017e6 <secret_phase+0x25>
  401813:	e8 a7 08 00 00       	callq  4020bf <explode_bomb>
  401818:	eb df                	jmp    4017f9 <secret_phase+0x38>

000000000040181a <sig_handler>:
  40181a:	48 83 ec 08          	sub    $0x8,%rsp
  40181e:	48 8d 3d db 19 00 00 	lea    0x19db(%rip),%rdi        # 403200 <array.3191+0x40>
  401825:	e8 36 f8 ff ff       	callq  401060 <puts@plt>
  40182a:	bf 03 00 00 00       	mov    $0x3,%edi
  40182f:	e8 cc f9 ff ff       	callq  401200 <sleep@plt>
  401834:	48 8d 3d f6 1a 00 00 	lea    0x1af6(%rip),%rdi        # 403331 <array.3191+0x171>
  40183b:	b8 00 00 00 00       	mov    $0x0,%eax
  401840:	e8 5b f8 ff ff       	callq  4010a0 <printf@plt>
  401845:	48 8b 3d 54 3f 00 00 	mov    0x3f54(%rip),%rdi        # 4057a0 <stdout@@GLIBC_2.2.5>
  40184c:	e8 0f f9 ff ff       	callq  401160 <fflush@plt>
  401851:	bf 01 00 00 00       	mov    $0x1,%edi
  401856:	e8 a5 f9 ff ff       	callq  401200 <sleep@plt>
  40185b:	48 8d 3d d7 1a 00 00 	lea    0x1ad7(%rip),%rdi        # 403339 <array.3191+0x179>
  401862:	e8 f9 f7 ff ff       	callq  401060 <puts@plt>
  401867:	bf 10 00 00 00       	mov    $0x10,%edi
  40186c:	e8 5f f9 ff ff       	callq  4011d0 <exit@plt>

0000000000401871 <invalid_phase>:
  401871:	48 83 ec 08          	sub    $0x8,%rsp
  401875:	48 89 fe             	mov    %rdi,%rsi
  401878:	48 8d 3d c2 1a 00 00 	lea    0x1ac2(%rip),%rdi        # 403341 <array.3191+0x181>
  40187f:	b8 00 00 00 00       	mov    $0x0,%eax
  401884:	e8 17 f8 ff ff       	callq  4010a0 <printf@plt>
  401889:	bf 08 00 00 00       	mov    $0x8,%edi
  40188e:	e8 3d f9 ff ff       	callq  4011d0 <exit@plt>

0000000000401893 <string_length>:
  401893:	80 3f 00             	cmpb   $0x0,(%rdi)
  401896:	74 12                	je     4018aa <string_length+0x17>
  401898:	b8 00 00 00 00       	mov    $0x0,%eax
  40189d:	48 83 c7 01          	add    $0x1,%rdi
  4018a1:	83 c0 01             	add    $0x1,%eax
  4018a4:	80 3f 00             	cmpb   $0x0,(%rdi)
  4018a7:	75 f4                	jne    40189d <string_length+0xa>
  4018a9:	c3                   	retq   
  4018aa:	b8 00 00 00 00       	mov    $0x0,%eax
  4018af:	c3                   	retq   

00000000004018b0 <strings_not_equal>:
  4018b0:	41 54                	push   %r12
  4018b2:	55                   	push   %rbp
  4018b3:	53                   	push   %rbx
  4018b4:	48 89 fb             	mov    %rdi,%rbx
  4018b7:	48 89 f5             	mov    %rsi,%rbp
  4018ba:	e8 d4 ff ff ff       	callq  401893 <string_length>
  4018bf:	41 89 c4             	mov    %eax,%r12d
  4018c2:	48 89 ef             	mov    %rbp,%rdi
  4018c5:	e8 c9 ff ff ff       	callq  401893 <string_length>
  4018ca:	ba 01 00 00 00       	mov    $0x1,%edx
  4018cf:	41 39 c4             	cmp    %eax,%r12d
  4018d2:	75 2f                	jne    401903 <strings_not_equal+0x53>
  4018d4:	0f b6 03             	movzbl (%rbx),%eax
  4018d7:	84 c0                	test   %al,%al
  4018d9:	74 2f                	je     40190a <strings_not_equal+0x5a>
  4018db:	3a 45 00             	cmp    0x0(%rbp),%al
  4018de:	75 31                	jne    401911 <strings_not_equal+0x61>
  4018e0:	b8 01 00 00 00       	mov    $0x1,%eax
  4018e5:	0f b6 14 03          	movzbl (%rbx,%rax,1),%edx
  4018e9:	84 d2                	test   %dl,%dl
  4018eb:	74 11                	je     4018fe <strings_not_equal+0x4e>
  4018ed:	48 83 c0 01          	add    $0x1,%rax
  4018f1:	38 54 05 ff          	cmp    %dl,-0x1(%rbp,%rax,1)
  4018f5:	74 ee                	je     4018e5 <strings_not_equal+0x35>
  4018f7:	ba 01 00 00 00       	mov    $0x1,%edx
  4018fc:	eb 05                	jmp    401903 <strings_not_equal+0x53>
  4018fe:	ba 00 00 00 00       	mov    $0x0,%edx
  401903:	89 d0                	mov    %edx,%eax
  401905:	5b                   	pop    %rbx
  401906:	5d                   	pop    %rbp
  401907:	41 5c                	pop    %r12
  401909:	c3                   	retq   
  40190a:	ba 00 00 00 00       	mov    $0x0,%edx
  40190f:	eb f2                	jmp    401903 <strings_not_equal+0x53>
  401911:	ba 01 00 00 00       	mov    $0x1,%edx
  401916:	eb eb                	jmp    401903 <strings_not_equal+0x53>

0000000000401918 <open_clientfd>:
  401918:	41 54                	push   %r12
  40191a:	55                   	push   %rbp
  40191b:	53                   	push   %rbx
  40191c:	48 83 ec 10          	sub    $0x10,%rsp
  401920:	49 89 fc             	mov    %rdi,%r12
  401923:	89 f5                	mov    %esi,%ebp
  401925:	ba 00 00 00 00       	mov    $0x0,%edx
  40192a:	be 01 00 00 00       	mov    $0x1,%esi
  40192f:	bf 02 00 00 00       	mov    $0x2,%edi
  401934:	e8 e7 f8 ff ff       	callq  401220 <socket@plt>
  401939:	85 c0                	test   %eax,%eax
  40193b:	78 6e                	js     4019ab <open_clientfd+0x93>
  40193d:	89 c3                	mov    %eax,%ebx
  40193f:	4c 89 e7             	mov    %r12,%rdi
  401942:	e8 d9 f7 ff ff       	callq  401120 <gethostbyname@plt>
  401947:	48 85 c0             	test   %rax,%rax
  40194a:	74 75                	je     4019c1 <open_clientfd+0xa9>
  40194c:	49 89 e4             	mov    %rsp,%r12
  40194f:	48 c7 44 24 02 00 00 	movq   $0x0,0x2(%rsp)
  401956:	00 00 
  401958:	41 c7 44 24 0a 00 00 	movl   $0x0,0xa(%r12)
  40195f:	00 00 
  401961:	66 41 c7 44 24 0e 00 	movw   $0x0,0xe(%r12)
  401968:	00 
  401969:	66 c7 04 24 02 00    	movw   $0x2,(%rsp)
  40196f:	48 63 50 14          	movslq 0x14(%rax),%rdx
  401973:	48 8b 40 18          	mov    0x18(%rax),%rax
  401977:	49 8d 7c 24 04       	lea    0x4(%r12),%rdi
  40197c:	48 8b 30             	mov    (%rax),%rsi
  40197f:	e8 fc f7 ff ff       	callq  401180 <memmove@plt>
  401984:	66 c1 c5 08          	rol    $0x8,%bp
  401988:	66 89 6c 24 02       	mov    %bp,0x2(%rsp)
  40198d:	ba 10 00 00 00       	mov    $0x10,%edx
  401992:	4c 89 e6             	mov    %r12,%rsi
  401995:	89 df                	mov    %ebx,%edi
  401997:	e8 44 f8 ff ff       	callq  4011e0 <connect@plt>
  40199c:	85 c0                	test   %eax,%eax
  40199e:	78 37                	js     4019d7 <open_clientfd+0xbf>
  4019a0:	89 d8                	mov    %ebx,%eax
  4019a2:	48 83 c4 10          	add    $0x10,%rsp
  4019a6:	5b                   	pop    %rbx
  4019a7:	5d                   	pop    %rbp
  4019a8:	41 5c                	pop    %r12
  4019aa:	c3                   	retq   
  4019ab:	48 8d 3d a0 19 00 00 	lea    0x19a0(%rip),%rdi        # 403352 <array.3191+0x192>
  4019b2:	e8 a9 f6 ff ff       	callq  401060 <puts@plt>
  4019b7:	bf 08 00 00 00       	mov    $0x8,%edi
  4019bc:	e8 0f f8 ff ff       	callq  4011d0 <exit@plt>
  4019c1:	48 8d 3d 98 19 00 00 	lea    0x1998(%rip),%rdi        # 403360 <array.3191+0x1a0>
  4019c8:	e8 93 f6 ff ff       	callq  401060 <puts@plt>
  4019cd:	bf 08 00 00 00       	mov    $0x8,%edi
  4019d2:	e8 f9 f7 ff ff       	callq  4011d0 <exit@plt>
  4019d7:	48 8d 3d 90 19 00 00 	lea    0x1990(%rip),%rdi        # 40336e <array.3191+0x1ae>
  4019de:	e8 7d f6 ff ff       	callq  401060 <puts@plt>
  4019e3:	bf 08 00 00 00       	mov    $0x8,%edi
  4019e8:	e8 e3 f7 ff ff       	callq  4011d0 <exit@plt>

00000000004019ed <initialize_bomb>:
  4019ed:	48 83 ec 08          	sub    $0x8,%rsp
  4019f1:	48 8d 35 22 fe ff ff 	lea    -0x1de(%rip),%rsi        # 40181a <sig_handler>
  4019f8:	bf 02 00 00 00       	mov    $0x2,%edi
  4019fd:	e8 0e f7 ff ff       	callq  401110 <signal@plt>
  401a02:	be 50 00 00 00       	mov    $0x50,%esi
  401a07:	48 8d 3d 6e 19 00 00 	lea    0x196e(%rip),%rdi        # 40337c <array.3191+0x1bc>
  401a0e:	e8 05 ff ff ff       	callq  401918 <open_clientfd>
  401a13:	89 c7                	mov    %eax,%edi
  401a15:	e8 b6 f6 ff ff       	callq  4010d0 <close@plt>
  401a1a:	48 83 c4 08          	add    $0x8,%rsp
  401a1e:	c3                   	retq   

0000000000401a1f <blank_line>:
  401a1f:	55                   	push   %rbp
  401a20:	53                   	push   %rbx
  401a21:	48 83 ec 08          	sub    $0x8,%rsp
  401a25:	48 89 fd             	mov    %rdi,%rbp
  401a28:	0f b6 5d 00          	movzbl 0x0(%rbp),%ebx
  401a2c:	84 db                	test   %bl,%bl
  401a2e:	74 1e                	je     401a4e <blank_line+0x2f>
  401a30:	e8 db f7 ff ff       	callq  401210 <__ctype_b_loc@plt>
  401a35:	48 83 c5 01          	add    $0x1,%rbp
  401a39:	48 0f be db          	movsbq %bl,%rbx
  401a3d:	48 8b 00             	mov    (%rax),%rax
  401a40:	f6 44 58 01 20       	testb  $0x20,0x1(%rax,%rbx,2)
  401a45:	75 e1                	jne    401a28 <blank_line+0x9>
  401a47:	b8 00 00 00 00       	mov    $0x0,%eax
  401a4c:	eb 05                	jmp    401a53 <blank_line+0x34>
  401a4e:	b8 01 00 00 00       	mov    $0x1,%eax
  401a53:	48 83 c4 08          	add    $0x8,%rsp
  401a57:	5b                   	pop    %rbx
  401a58:	5d                   	pop    %rbp
  401a59:	c3                   	retq   

0000000000401a5a <skip>:
  401a5a:	55                   	push   %rbp
  401a5b:	53                   	push   %rbx
  401a5c:	48 83 ec 08          	sub    $0x8,%rsp
  401a60:	48 8d 2d 79 3d 00 00 	lea    0x3d79(%rip),%rbp        # 4057e0 <input_strings>
  401a67:	48 63 05 4e 3d 00 00 	movslq 0x3d4e(%rip),%rax        # 4057bc <num_input_strings>
  401a6e:	48 8d 3c 80          	lea    (%rax,%rax,4),%rdi
  401a72:	48 c1 e7 04          	shl    $0x4,%rdi
  401a76:	48 01 ef             	add    %rbp,%rdi
  401a79:	48 8b 15 40 3d 00 00 	mov    0x3d40(%rip),%rdx        # 4057c0 <infile>
  401a80:	be 50 00 00 00       	mov    $0x50,%esi
  401a85:	e8 66 f6 ff ff       	callq  4010f0 <fgets@plt>
  401a8a:	48 89 c3             	mov    %rax,%rbx
  401a8d:	48 85 c0             	test   %rax,%rax
  401a90:	74 0c                	je     401a9e <skip+0x44>
  401a92:	48 89 c7             	mov    %rax,%rdi
  401a95:	e8 85 ff ff ff       	callq  401a1f <blank_line>
  401a9a:	85 c0                	test   %eax,%eax
  401a9c:	75 c9                	jne    401a67 <skip+0xd>
  401a9e:	48 89 d8             	mov    %rbx,%rax
  401aa1:	48 83 c4 08          	add    $0x8,%rsp
  401aa5:	5b                   	pop    %rbx
  401aa6:	5d                   	pop    %rbp
  401aa7:	c3                   	retq   

0000000000401aa8 <writen>:
  401aa8:	41 56                	push   %r14
  401aaa:	41 55                	push   %r13
  401aac:	41 54                	push   %r12
  401aae:	55                   	push   %rbp
  401aaf:	53                   	push   %rbx
  401ab0:	49 89 d6             	mov    %rdx,%r14
  401ab3:	48 85 d2             	test   %rdx,%rdx
  401ab6:	74 3b                	je     401af3 <writen+0x4b>
  401ab8:	41 89 fc             	mov    %edi,%r12d
  401abb:	48 89 f5             	mov    %rsi,%rbp
  401abe:	48 89 d3             	mov    %rdx,%rbx
  401ac1:	41 bd 00 00 00 00    	mov    $0x0,%r13d
  401ac7:	eb 08                	jmp    401ad1 <writen+0x29>
  401ac9:	48 01 c5             	add    %rax,%rbp
  401acc:	48 29 c3             	sub    %rax,%rbx
  401acf:	74 22                	je     401af3 <writen+0x4b>
  401ad1:	48 89 da             	mov    %rbx,%rdx
  401ad4:	48 89 ee             	mov    %rbp,%rsi
  401ad7:	44 89 e7             	mov    %r12d,%edi
  401ada:	e8 91 f5 ff ff       	callq  401070 <write@plt>
  401adf:	48 85 c0             	test   %rax,%rax
  401ae2:	7f e5                	jg     401ac9 <writen+0x21>
  401ae4:	e8 57 f5 ff ff       	callq  401040 <__errno_location@plt>
  401ae9:	83 38 04             	cmpl   $0x4,(%rax)
  401aec:	75 11                	jne    401aff <writen+0x57>
  401aee:	4c 89 e8             	mov    %r13,%rax
  401af1:	eb d6                	jmp    401ac9 <writen+0x21>
  401af3:	4c 89 f0             	mov    %r14,%rax
  401af6:	5b                   	pop    %rbx
  401af7:	5d                   	pop    %rbp
  401af8:	41 5c                	pop    %r12
  401afa:	41 5d                	pop    %r13
  401afc:	41 5e                	pop    %r14
  401afe:	c3                   	retq   
  401aff:	48 c7 c0 ff ff ff ff 	mov    $0xffffffffffffffff,%rax
  401b06:	eb ee                	jmp    401af6 <writen+0x4e>

0000000000401b08 <send_msg>:
  401b08:	41 57                	push   %r15
  401b0a:	41 56                	push   %r14
  401b0c:	41 55                	push   %r13
  401b0e:	41 54                	push   %r12
  401b10:	55                   	push   %rbp
  401b11:	53                   	push   %rbx
  401b12:	48 81 ec 78 24 00 00 	sub    $0x2478,%rsp
  401b19:	41 89 fc             	mov    %edi,%r12d
  401b1c:	ba 00 00 00 00       	mov    $0x0,%edx
  401b21:	be 01 00 00 00       	mov    $0x1,%esi
  401b26:	bf 02 00 00 00       	mov    $0x2,%edi
  401b2b:	e8 f0 f6 ff ff       	callq  401220 <socket@plt>
  401b30:	89 44 24 0c          	mov    %eax,0xc(%rsp)
  401b34:	85 c0                	test   %eax,%eax
  401b36:	0f 88 28 02 00 00    	js     401d64 <send_msg+0x25c>
  401b3c:	48 8d 94 24 64 24 00 	lea    0x2464(%rsp),%rdx
  401b43:	00 
  401b44:	48 c7 84 24 64 24 00 	movq   $0x0,0x2464(%rsp)
  401b4b:	00 00 00 00 00 
  401b50:	c7 42 08 00 00 00 00 	movl   $0x0,0x8(%rdx)
  401b57:	66 c7 84 24 60 24 00 	movw   $0x2,0x2460(%rsp)
  401b5e:	00 02 00 
  401b61:	66 c7 84 24 62 24 00 	movw   $0x7ac8,0x2462(%rsp)
  401b68:	00 c8 7a 
  401b6b:	48 8d 35 0a 18 00 00 	lea    0x180a(%rip),%rsi        # 40337c <array.3191+0x1bc>
  401b72:	bf 02 00 00 00       	mov    $0x2,%edi
  401b77:	b8 00 00 00 00       	mov    $0x0,%eax
  401b7c:	e8 cf f5 ff ff       	callq  401150 <inet_pton@plt>
  401b81:	85 c0                	test   %eax,%eax
  401b83:	0f 88 0d 02 00 00    	js     401d96 <send_msg+0x28e>
  401b89:	48 8d b4 24 60 24 00 	lea    0x2460(%rsp),%rsi
  401b90:	00 
  401b91:	ba 10 00 00 00       	mov    $0x10,%edx
  401b96:	8b 7c 24 0c          	mov    0xc(%rsp),%edi
  401b9a:	e8 41 f6 ff ff       	callq  4011e0 <connect@plt>
  401b9f:	85 c0                	test   %eax,%eax
  401ba1:	0f 88 2a 02 00 00    	js     401dd1 <send_msg+0x2c9>
  401ba7:	48 8d 6c 24 60       	lea    0x60(%rsp),%rbp
  401bac:	48 b8 53 75 62 6a 65 	movabs $0x3a7463656a627553,%rax
  401bb3:	63 74 3a 
  401bb6:	48 ba 20 42 6f 6d 62 	movabs $0x6f6e20626d6f4220,%rdx
  401bbd:	20 6e 6f 
  401bc0:	48 89 44 24 60       	mov    %rax,0x60(%rsp)
  401bc5:	48 89 54 24 68       	mov    %rdx,0x68(%rsp)
  401bca:	48 b8 74 69 66 69 63 	movabs $0x6974616369666974,%rax
  401bd1:	61 74 69 
  401bd4:	48 89 44 24 70       	mov    %rax,0x70(%rsp)
  401bd9:	c7 44 24 78 6f 6e 0a 	movl   $0xa6e6f,0x78(%rsp)
  401be0:	00 
  401be1:	48 8d 9c 24 60 04 00 	lea    0x460(%rsp),%rbx
  401be8:	00 
  401be9:	48 89 ee             	mov    %rbp,%rsi
  401bec:	48 89 df             	mov    %rbx,%rdi
  401bef:	e8 bc f5 ff ff       	callq  4011b0 <strcat@plt>
  401bf4:	66 c7 44 24 60 0a 00 	movw   $0xa,0x60(%rsp)
  401bfb:	48 89 ee             	mov    %rbp,%rsi
  401bfe:	48 89 df             	mov    %rbx,%rdi
  401c01:	e8 aa f5 ff ff       	callq  4011b0 <strcat@plt>
  401c06:	bf 00 00 00 00       	mov    $0x0,%edi
  401c0b:	e8 80 f5 ff ff       	callq  401190 <cuserid@plt>
  401c10:	48 85 c0             	test   %rax,%rax
  401c13:	0f 84 f3 01 00 00    	je     401e0c <send_msg+0x304>
  401c19:	48 8d 7c 24 10       	lea    0x10(%rsp),%rdi
  401c1e:	48 89 c6             	mov    %rax,%rsi
  401c21:	e8 2a f4 ff ff       	callq  401050 <strcpy@plt>
  401c26:	45 85 e4             	test   %r12d,%r12d
  401c29:	4c 8d 0d 5a 17 00 00 	lea    0x175a(%rip),%r9        # 40338a <array.3191+0x1ca>
  401c30:	48 8d 05 5b 17 00 00 	lea    0x175b(%rip),%rax        # 403392 <array.3191+0x1d2>
  401c37:	4c 0f 44 c8          	cmove  %rax,%r9
  401c3b:	48 8d 5c 24 60       	lea    0x60(%rsp),%rbx
  401c40:	48 83 ec 08          	sub    $0x8,%rsp
  401c44:	8b 05 72 3b 00 00    	mov    0x3b72(%rip),%eax        # 4057bc <num_input_strings>
  401c4a:	50                   	push   %rax
  401c4b:	4c 8d 44 24 20       	lea    0x20(%rsp),%r8
  401c50:	8b 0d 0a 3a 00 00    	mov    0x3a0a(%rip),%ecx        # 405660 <bomb_id>
  401c56:	48 8d 15 03 36 00 00 	lea    0x3603(%rip),%rdx        # 405260 <lab_id>
  401c5d:	48 8d 35 52 17 00 00 	lea    0x1752(%rip),%rsi        # 4033b6 <array.3191+0x1f6>
  401c64:	48 89 df             	mov    %rbx,%rdi
  401c67:	b8 00 00 00 00       	mov    $0x0,%eax
  401c6c:	e8 4f f5 ff ff       	callq  4011c0 <sprintf@plt>
  401c71:	48 8d bc 24 70 04 00 	lea    0x470(%rsp),%rdi
  401c78:	00 
  401c79:	48 89 de             	mov    %rbx,%rsi
  401c7c:	e8 2f f5 ff ff       	callq  4011b0 <strcat@plt>
  401c81:	48 83 c4 10          	add    $0x10,%rsp
  401c85:	83 3d 30 3b 00 00 00 	cmpl   $0x0,0x3b30(%rip)        # 4057bc <num_input_strings>
  401c8c:	7e 6b                	jle    401cf9 <send_msg+0x1f1>
  401c8e:	48 8d 2d 4b 3b 00 00 	lea    0x3b4b(%rip),%rbp        # 4057e0 <input_strings>
  401c95:	bb 00 00 00 00       	mov    $0x0,%ebx
  401c9a:	4c 8d 7c 24 10       	lea    0x10(%rsp),%r15
  401c9f:	4c 8d 64 24 60       	lea    0x60(%rsp),%r12
  401ca4:	4c 8d 35 b5 35 00 00 	lea    0x35b5(%rip),%r14        # 405260 <lab_id>
  401cab:	4c 8d ac 24 60 04 00 	lea    0x460(%rsp),%r13
  401cb2:	00 
  401cb3:	83 c3 01             	add    $0x1,%ebx
  401cb6:	48 83 ec 08          	sub    $0x8,%rsp
  401cba:	55                   	push   %rbp
  401cbb:	41 89 d9             	mov    %ebx,%r9d
  401cbe:	4d 89 f8             	mov    %r15,%r8
  401cc1:	8b 0d 99 39 00 00    	mov    0x3999(%rip),%ecx        # 405660 <bomb_id>
  401cc7:	4c 89 f2             	mov    %r14,%rdx
  401cca:	48 8d 35 01 17 00 00 	lea    0x1701(%rip),%rsi        # 4033d2 <array.3191+0x212>
  401cd1:	4c 89 e7             	mov    %r12,%rdi
  401cd4:	b8 00 00 00 00       	mov    $0x0,%eax
  401cd9:	e8 e2 f4 ff ff       	callq  4011c0 <sprintf@plt>
  401cde:	4c 89 e6             	mov    %r12,%rsi
  401ce1:	4c 89 ef             	mov    %r13,%rdi
  401ce4:	e8 c7 f4 ff ff       	callq  4011b0 <strcat@plt>
  401ce9:	48 83 c5 50          	add    $0x50,%rbp
  401ced:	48 83 c4 10          	add    $0x10,%rsp
  401cf1:	3b 1d c5 3a 00 00    	cmp    0x3ac5(%rip),%ebx        # 4057bc <num_input_strings>
  401cf7:	7c ba                	jl     401cb3 <send_msg+0x1ab>
  401cf9:	48 8d ac 24 60 04 00 	lea    0x460(%rsp),%rbp
  401d00:	00 
  401d01:	49 c7 c4 ff ff ff ff 	mov    $0xffffffffffffffff,%r12
  401d08:	bb 00 00 00 00       	mov    $0x0,%ebx
  401d0d:	4c 89 e1             	mov    %r12,%rcx
  401d10:	48 89 ef             	mov    %rbp,%rdi
  401d13:	89 d8                	mov    %ebx,%eax
  401d15:	f2 ae                	repnz scas %es:(%rdi),%al
  401d17:	48 f7 d1             	not    %rcx
  401d1a:	4a 8d 14 21          	lea    (%rcx,%r12,1),%rdx
  401d1e:	48 89 ee             	mov    %rbp,%rsi
  401d21:	8b 7c 24 0c          	mov    0xc(%rsp),%edi
  401d25:	e8 7e fd ff ff       	callq  401aa8 <writen>
  401d2a:	48 89 c2             	mov    %rax,%rdx
  401d2d:	4c 89 e1             	mov    %r12,%rcx
  401d30:	48 89 ef             	mov    %rbp,%rdi
  401d33:	89 d8                	mov    %ebx,%eax
  401d35:	f2 ae                	repnz scas %es:(%rdi),%al
  401d37:	48 89 cb             	mov    %rcx,%rbx
  401d3a:	48 f7 d3             	not    %rbx
  401d3d:	4c 01 e3             	add    %r12,%rbx
  401d40:	48 39 da             	cmp    %rbx,%rdx
  401d43:	0f 82 dc 00 00 00    	jb     401e25 <send_msg+0x31d>
  401d49:	8b 7c 24 0c          	mov    0xc(%rsp),%edi
  401d4d:	e8 7e f3 ff ff       	callq  4010d0 <close@plt>
  401d52:	48 81 c4 78 24 00 00 	add    $0x2478,%rsp
  401d59:	5b                   	pop    %rbx
  401d5a:	5d                   	pop    %rbp
  401d5b:	41 5c                	pop    %r12
  401d5d:	41 5d                	pop    %r13
  401d5f:	41 5e                	pop    %r14
  401d61:	41 5f                	pop    %r15
  401d63:	c3                   	retq   
  401d64:	48 8d 15 30 16 00 00 	lea    0x1630(%rip),%rdx        # 40339b <array.3191+0x1db>
  401d6b:	48 8d 35 ab 12 00 00 	lea    0x12ab(%rip),%rsi        # 40301d <_IO_stdin_used+0x1d>
  401d72:	48 8b 3d 27 3a 00 00 	mov    0x3a27(%rip),%rdi        # 4057a0 <stdout@@GLIBC_2.2.5>
  401d79:	b8 00 00 00 00       	mov    $0x0,%eax
  401d7e:	e8 ad f3 ff ff       	callq  401130 <fprintf@plt>
  401d83:	8b 7c 24 0c          	mov    0xc(%rsp),%edi
  401d87:	e8 44 f3 ff ff       	callq  4010d0 <close@plt>
  401d8c:	bf 01 00 00 00       	mov    $0x1,%edi
  401d91:	e8 3a f4 ff ff       	callq  4011d0 <exit@plt>
  401d96:	48 8d 15 72 16 00 00 	lea    0x1672(%rip),%rdx        # 40340f <array.3191+0x24f>
  401d9d:	48 8d 35 79 12 00 00 	lea    0x1279(%rip),%rsi        # 40301d <_IO_stdin_used+0x1d>
  401da4:	48 8b 3d f5 39 00 00 	mov    0x39f5(%rip),%rdi        # 4057a0 <stdout@@GLIBC_2.2.5>
  401dab:	b8 00 00 00 00       	mov    $0x0,%eax
  401db0:	e8 7b f3 ff ff       	callq  401130 <fprintf@plt>
  401db5:	83 7c 24 0c 00       	cmpl   $0x0,0xc(%rsp)
  401dba:	75 0a                	jne    401dc6 <send_msg+0x2be>
  401dbc:	bf 01 00 00 00       	mov    $0x1,%edi
  401dc1:	e8 0a f4 ff ff       	callq  4011d0 <exit@plt>
  401dc6:	8b 7c 24 0c          	mov    0xc(%rsp),%edi
  401dca:	e8 01 f3 ff ff       	callq  4010d0 <close@plt>
  401dcf:	eb eb                	jmp    401dbc <send_msg+0x2b4>
  401dd1:	48 8d 15 d0 15 00 00 	lea    0x15d0(%rip),%rdx        # 4033a8 <array.3191+0x1e8>
  401dd8:	48 8d 35 3e 12 00 00 	lea    0x123e(%rip),%rsi        # 40301d <_IO_stdin_used+0x1d>
  401ddf:	48 8b 3d ba 39 00 00 	mov    0x39ba(%rip),%rdi        # 4057a0 <stdout@@GLIBC_2.2.5>
  401de6:	b8 00 00 00 00       	mov    $0x0,%eax
  401deb:	e8 40 f3 ff ff       	callq  401130 <fprintf@plt>
  401df0:	83 7c 24 0c 00       	cmpl   $0x0,0xc(%rsp)
  401df5:	75 0a                	jne    401e01 <send_msg+0x2f9>
  401df7:	bf 01 00 00 00       	mov    $0x1,%edi
  401dfc:	e8 cf f3 ff ff       	callq  4011d0 <exit@plt>
  401e01:	8b 7c 24 0c          	mov    0xc(%rsp),%edi
  401e05:	e8 c6 f2 ff ff       	callq  4010d0 <close@plt>
  401e0a:	eb eb                	jmp    401df7 <send_msg+0x2ef>
  401e0c:	c7 44 24 10 6e 6f 62 	movl   $0x6f626f6e,0x10(%rsp)
  401e13:	6f 
  401e14:	66 c7 44 24 14 64 79 	movw   $0x7964,0x14(%rsp)
  401e1b:	c6 44 24 16 00       	movb   $0x0,0x16(%rsp)
  401e20:	e9 01 fe ff ff       	jmpq   401c26 <send_msg+0x11e>
  401e25:	48 8d 15 c2 15 00 00 	lea    0x15c2(%rip),%rdx        # 4033ee <array.3191+0x22e>
  401e2c:	48 8d 35 ea 11 00 00 	lea    0x11ea(%rip),%rsi        # 40301d <_IO_stdin_used+0x1d>
  401e33:	48 8b 3d 66 39 00 00 	mov    0x3966(%rip),%rdi        # 4057a0 <stdout@@GLIBC_2.2.5>
  401e3a:	e8 f1 f2 ff ff       	callq  401130 <fprintf@plt>
  401e3f:	83 7c 24 0c 00       	cmpl   $0x0,0xc(%rsp)
  401e44:	75 0a                	jne    401e50 <send_msg+0x348>
  401e46:	bf 01 00 00 00       	mov    $0x1,%edi
  401e4b:	e8 80 f3 ff ff       	callq  4011d0 <exit@plt>
  401e50:	8b 7c 24 0c          	mov    0xc(%rsp),%edi
  401e54:	e8 77 f2 ff ff       	callq  4010d0 <close@plt>
  401e59:	eb eb                	jmp    401e46 <send_msg+0x33e>

0000000000401e5b <send_msg_2>:
  401e5b:	41 56                	push   %r14
  401e5d:	41 55                	push   %r13
  401e5f:	41 54                	push   %r12
  401e61:	55                   	push   %rbp
  401e62:	53                   	push   %rbx
  401e63:	48 83 ec 50          	sub    $0x50,%rsp
  401e67:	89 fb                	mov    %edi,%ebx
  401e69:	bf 00 00 00 00       	mov    $0x0,%edi
  401e6e:	e8 4d f2 ff ff       	callq  4010c0 <dup@plt>
  401e73:	83 f8 ff             	cmp    $0xffffffff,%eax
  401e76:	0f 84 91 01 00 00    	je     40200d <send_msg_2+0x1b2>
  401e7c:	41 89 c6             	mov    %eax,%r14d
  401e7f:	bf 00 00 00 00       	mov    $0x0,%edi
  401e84:	e8 47 f2 ff ff       	callq  4010d0 <close@plt>
  401e89:	83 f8 ff             	cmp    $0xffffffff,%eax
  401e8c:	0f 84 91 01 00 00    	je     402023 <send_msg_2+0x1c8>
  401e92:	e8 69 f2 ff ff       	callq  401100 <tmpfile@plt>
  401e97:	49 89 c4             	mov    %rax,%r12
  401e9a:	48 85 c0             	test   %rax,%rax
  401e9d:	0f 84 96 01 00 00    	je     402039 <send_msg_2+0x1de>
  401ea3:	48 89 c1             	mov    %rax,%rcx
  401ea6:	ba 1b 00 00 00       	mov    $0x1b,%edx
  401eab:	be 01 00 00 00       	mov    $0x1,%esi
  401eb0:	48 8d 3d 86 15 00 00 	lea    0x1586(%rip),%rdi        # 40343d <array.3191+0x27d>
  401eb7:	e8 34 f3 ff ff       	callq  4011f0 <fwrite@plt>
  401ebc:	4c 89 e6             	mov    %r12,%rsi
  401ebf:	bf 0a 00 00 00       	mov    $0xa,%edi
  401ec4:	e8 17 f2 ff ff       	callq  4010e0 <fputc@plt>
  401ec9:	bf 00 00 00 00       	mov    $0x0,%edi
  401ece:	e8 bd f2 ff ff       	callq  401190 <cuserid@plt>
  401ed3:	48 85 c0             	test   %rax,%rax
  401ed6:	0f 84 73 01 00 00    	je     40204f <send_msg_2+0x1f4>
  401edc:	48 89 e7             	mov    %rsp,%rdi
  401edf:	48 89 c6             	mov    %rax,%rsi
  401ee2:	e8 69 f1 ff ff       	callq  401050 <strcpy@plt>
  401ee7:	85 db                	test   %ebx,%ebx
  401ee9:	4c 8d 0d 9a 14 00 00 	lea    0x149a(%rip),%r9        # 40338a <array.3191+0x1ca>
  401ef0:	48 8d 05 9b 14 00 00 	lea    0x149b(%rip),%rax        # 403392 <array.3191+0x1d2>
  401ef7:	4c 0f 44 c8          	cmove  %rax,%r9
  401efb:	48 83 ec 08          	sub    $0x8,%rsp
  401eff:	8b 05 b7 38 00 00    	mov    0x38b7(%rip),%eax        # 4057bc <num_input_strings>
  401f05:	50                   	push   %rax
  401f06:	4c 8d 44 24 10       	lea    0x10(%rsp),%r8
  401f0b:	8b 0d 4f 37 00 00    	mov    0x374f(%rip),%ecx        # 405660 <bomb_id>
  401f11:	48 8d 15 48 33 00 00 	lea    0x3348(%rip),%rdx        # 405260 <lab_id>
  401f18:	48 8d 35 97 14 00 00 	lea    0x1497(%rip),%rsi        # 4033b6 <array.3191+0x1f6>
  401f1f:	4c 89 e7             	mov    %r12,%rdi
  401f22:	b8 00 00 00 00       	mov    $0x0,%eax
  401f27:	e8 04 f2 ff ff       	callq  401130 <fprintf@plt>
  401f2c:	48 83 c4 10          	add    $0x10,%rsp
  401f30:	83 3d 85 38 00 00 00 	cmpl   $0x0,0x3885(%rip)        # 4057bc <num_input_strings>
  401f37:	7e 4e                	jle    401f87 <send_msg_2+0x12c>
  401f39:	48 8d 2d a0 38 00 00 	lea    0x38a0(%rip),%rbp        # 4057e0 <input_strings>
  401f40:	bb 00 00 00 00       	mov    $0x0,%ebx
  401f45:	49 89 e5             	mov    %rsp,%r13
  401f48:	83 c3 01             	add    $0x1,%ebx
  401f4b:	48 83 ec 08          	sub    $0x8,%rsp
  401f4f:	55                   	push   %rbp
  401f50:	41 89 d9             	mov    %ebx,%r9d
  401f53:	4d 89 e8             	mov    %r13,%r8
  401f56:	8b 0d 04 37 00 00    	mov    0x3704(%rip),%ecx        # 405660 <bomb_id>
  401f5c:	48 8d 15 fd 32 00 00 	lea    0x32fd(%rip),%rdx        # 405260 <lab_id>
  401f63:	48 8d 35 68 14 00 00 	lea    0x1468(%rip),%rsi        # 4033d2 <array.3191+0x212>
  401f6a:	4c 89 e7             	mov    %r12,%rdi
  401f6d:	b8 00 00 00 00       	mov    $0x0,%eax
  401f72:	e8 b9 f1 ff ff       	callq  401130 <fprintf@plt>
  401f77:	48 83 c5 50          	add    $0x50,%rbp
  401f7b:	48 83 c4 10          	add    $0x10,%rsp
  401f7f:	3b 1d 37 38 00 00    	cmp    0x3837(%rip),%ebx        # 4057bc <num_input_strings>
  401f85:	7c c1                	jl     401f48 <send_msg_2+0xed>
  401f87:	4c 89 e7             	mov    %r12,%rdi
  401f8a:	e8 21 f1 ff ff       	callq  4010b0 <rewind@plt>
  401f8f:	4c 8d 05 c3 14 00 00 	lea    0x14c3(%rip),%r8        # 403459 <array.3191+0x299>
  401f96:	48 8d 0d c6 14 00 00 	lea    0x14c6(%rip),%rcx        # 403463 <array.3191+0x2a3>
  401f9d:	48 8d 15 c7 14 00 00 	lea    0x14c7(%rip),%rdx        # 40346b <array.3191+0x2ab>
  401fa4:	48 8d 35 d7 14 00 00 	lea    0x14d7(%rip),%rsi        # 403482 <array.3191+0x2c2>
  401fab:	48 8d 3d 6e 3e 00 00 	lea    0x3e6e(%rip),%rdi        # 405e20 <scratch>
  401fb2:	b8 00 00 00 00       	mov    $0x0,%eax
  401fb7:	e8 04 f2 ff ff       	callq  4011c0 <sprintf@plt>
  401fbc:	48 8d 3d 5d 3e 00 00 	lea    0x3e5d(%rip),%rdi        # 405e20 <scratch>
  401fc3:	e8 c8 f0 ff ff       	callq  401090 <system@plt>
  401fc8:	85 c0                	test   %eax,%eax
  401fca:	0f 85 97 00 00 00    	jne    402067 <send_msg_2+0x20c>
  401fd0:	4c 89 e7             	mov    %r12,%rdi
  401fd3:	e8 a8 f0 ff ff       	callq  401080 <fclose@plt>
  401fd8:	85 c0                	test   %eax,%eax
  401fda:	0f 85 9d 00 00 00    	jne    40207d <send_msg_2+0x222>
  401fe0:	44 89 f7             	mov    %r14d,%edi
  401fe3:	e8 d8 f0 ff ff       	callq  4010c0 <dup@plt>
  401fe8:	85 c0                	test   %eax,%eax
  401fea:	0f 85 a3 00 00 00    	jne    402093 <send_msg_2+0x238>
  401ff0:	44 89 f7             	mov    %r14d,%edi
  401ff3:	e8 d8 f0 ff ff       	callq  4010d0 <close@plt>
  401ff8:	85 c0                	test   %eax,%eax
  401ffa:	0f 85 a9 00 00 00    	jne    4020a9 <send_msg_2+0x24e>
  402000:	48 83 c4 50          	add    $0x50,%rsp
  402004:	5b                   	pop    %rbx
  402005:	5d                   	pop    %rbp
  402006:	41 5c                	pop    %r12
  402008:	41 5d                	pop    %r13
  40200a:	41 5e                	pop    %r14
  40200c:	c3                   	retq   
  40200d:	48 8d 3d ed 13 00 00 	lea    0x13ed(%rip),%rdi        # 403401 <array.3191+0x241>
  402014:	e8 47 f0 ff ff       	callq  401060 <puts@plt>
  402019:	bf 08 00 00 00       	mov    $0x8,%edi
  40201e:	e8 ad f1 ff ff       	callq  4011d0 <exit@plt>
  402023:	48 8d 3d eb 13 00 00 	lea    0x13eb(%rip),%rdi        # 403415 <array.3191+0x255>
  40202a:	e8 31 f0 ff ff       	callq  401060 <puts@plt>
  40202f:	bf 08 00 00 00       	mov    $0x8,%edi
  402034:	e8 97 f1 ff ff       	callq  4011d0 <exit@plt>
  402039:	48 8d 3d e8 13 00 00 	lea    0x13e8(%rip),%rdi        # 403428 <array.3191+0x268>
  402040:	e8 1b f0 ff ff       	callq  401060 <puts@plt>
  402045:	bf 08 00 00 00       	mov    $0x8,%edi
  40204a:	e8 81 f1 ff ff       	callq  4011d0 <exit@plt>
  40204f:	c7 04 24 6e 6f 62 6f 	movl   $0x6f626f6e,(%rsp)
  402056:	66 c7 44 24 04 64 79 	movw   $0x7964,0x4(%rsp)
  40205d:	c6 44 24 06 00       	movb   $0x0,0x6(%rsp)
  402062:	e9 80 fe ff ff       	jmpq   401ee7 <send_msg_2+0x8c>
  402067:	48 8d 3d 1d 14 00 00 	lea    0x141d(%rip),%rdi        # 40348b <array.3191+0x2cb>
  40206e:	e8 ed ef ff ff       	callq  401060 <puts@plt>
  402073:	bf 08 00 00 00       	mov    $0x8,%edi
  402078:	e8 53 f1 ff ff       	callq  4011d0 <exit@plt>
  40207d:	48 8d 3d 21 14 00 00 	lea    0x1421(%rip),%rdi        # 4034a5 <array.3191+0x2e5>
  402084:	e8 d7 ef ff ff       	callq  401060 <puts@plt>
  402089:	bf 08 00 00 00       	mov    $0x8,%edi
  40208e:	e8 3d f1 ff ff       	callq  4011d0 <exit@plt>
  402093:	48 8d 3d 24 14 00 00 	lea    0x1424(%rip),%rdi        # 4034be <array.3191+0x2fe>
  40209a:	e8 c1 ef ff ff       	callq  401060 <puts@plt>
  40209f:	bf 08 00 00 00       	mov    $0x8,%edi
  4020a4:	e8 27 f1 ff ff       	callq  4011d0 <exit@plt>
  4020a9:	48 8d 3d 29 14 00 00 	lea    0x1429(%rip),%rdi        # 4034d9 <array.3191+0x319>
  4020b0:	e8 ab ef ff ff       	callq  401060 <puts@plt>
  4020b5:	bf 08 00 00 00       	mov    $0x8,%edi
  4020ba:	e8 11 f1 ff ff       	callq  4011d0 <exit@plt>

00000000004020bf <explode_bomb>:
  4020bf:	48 83 ec 08          	sub    $0x8,%rsp
  4020c3:	48 8d 3d 26 14 00 00 	lea    0x1426(%rip),%rdi        # 4034f0 <array.3191+0x330>
  4020ca:	e8 91 ef ff ff       	callq  401060 <puts@plt>
  4020cf:	48 8d 3d 23 14 00 00 	lea    0x1423(%rip),%rdi        # 4034f9 <array.3191+0x339>
  4020d6:	e8 85 ef ff ff       	callq  401060 <puts@plt>
  4020db:	bf 00 00 00 00       	mov    $0x0,%edi
  4020e0:	e8 23 fa ff ff       	callq  401b08 <send_msg>
  4020e5:	48 8d 3d 4c 11 00 00 	lea    0x114c(%rip),%rdi        # 403238 <array.3191+0x78>
  4020ec:	e8 6f ef ff ff       	callq  401060 <puts@plt>
  4020f1:	bf 08 00 00 00       	mov    $0x8,%edi
  4020f6:	e8 d5 f0 ff ff       	callq  4011d0 <exit@plt>

00000000004020fb <read_six_numbers>:
  4020fb:	48 83 ec 08          	sub    $0x8,%rsp
  4020ff:	48 89 f2             	mov    %rsi,%rdx
  402102:	48 8d 4e 04          	lea    0x4(%rsi),%rcx
  402106:	48 8d 46 14          	lea    0x14(%rsi),%rax
  40210a:	50                   	push   %rax
  40210b:	48 8d 46 10          	lea    0x10(%rsi),%rax
  40210f:	50                   	push   %rax
  402110:	4c 8d 4e 0c          	lea    0xc(%rsi),%r9
  402114:	4c 8d 46 08          	lea    0x8(%rsi),%r8
  402118:	48 8d 35 f1 13 00 00 	lea    0x13f1(%rip),%rsi        # 403510 <array.3191+0x350>
  40211f:	b8 00 00 00 00       	mov    $0x0,%eax
  402124:	e8 47 f0 ff ff       	callq  401170 <__isoc99_sscanf@plt>
  402129:	48 83 c4 10          	add    $0x10,%rsp
  40212d:	83 f8 05             	cmp    $0x5,%eax
  402130:	7e 05                	jle    402137 <read_six_numbers+0x3c>
  402132:	48 83 c4 08          	add    $0x8,%rsp
  402136:	c3                   	retq   
  402137:	e8 83 ff ff ff       	callq  4020bf <explode_bomb>

000000000040213c <read_line>:
  40213c:	48 83 ec 08          	sub    $0x8,%rsp
  402140:	b8 00 00 00 00       	mov    $0x0,%eax
  402145:	e8 10 f9 ff ff       	callq  401a5a <skip>
  40214a:	48 85 c0             	test   %rax,%rax
  40214d:	74 6f                	je     4021be <read_line+0x82>
  40214f:	8b 35 67 36 00 00    	mov    0x3667(%rip),%esi        # 4057bc <num_input_strings>
  402155:	48 63 c6             	movslq %esi,%rax
  402158:	48 8d 14 80          	lea    (%rax,%rax,4),%rdx
  40215c:	48 c1 e2 04          	shl    $0x4,%rdx
  402160:	48 8d 05 79 36 00 00 	lea    0x3679(%rip),%rax        # 4057e0 <input_strings>
  402167:	48 01 c2             	add    %rax,%rdx
  40216a:	48 c7 c1 ff ff ff ff 	mov    $0xffffffffffffffff,%rcx
  402171:	b8 00 00 00 00       	mov    $0x0,%eax
  402176:	48 89 d7             	mov    %rdx,%rdi
  402179:	f2 ae                	repnz scas %es:(%rdi),%al
  40217b:	48 f7 d1             	not    %rcx
  40217e:	48 83 e9 01          	sub    $0x1,%rcx
  402182:	83 f9 4f             	cmp    $0x4f,%ecx
  402185:	0f 84 a1 00 00 00    	je     40222c <read_line+0xf0>
  40218b:	83 e9 01             	sub    $0x1,%ecx
  40218e:	48 63 c9             	movslq %ecx,%rcx
  402191:	48 63 c6             	movslq %esi,%rax
  402194:	48 8d 04 80          	lea    (%rax,%rax,4),%rax
  402198:	48 c1 e0 04          	shl    $0x4,%rax
  40219c:	48 89 c7             	mov    %rax,%rdi
  40219f:	48 8d 05 3a 36 00 00 	lea    0x363a(%rip),%rax        # 4057e0 <input_strings>
  4021a6:	48 01 f8             	add    %rdi,%rax
  4021a9:	c6 04 08 00          	movb   $0x0,(%rax,%rcx,1)
  4021ad:	83 c6 01             	add    $0x1,%esi
  4021b0:	89 35 06 36 00 00    	mov    %esi,0x3606(%rip)        # 4057bc <num_input_strings>
  4021b6:	48 89 d0             	mov    %rdx,%rax
  4021b9:	48 83 c4 08          	add    $0x8,%rsp
  4021bd:	c3                   	retq   
  4021be:	48 8b 05 eb 35 00 00 	mov    0x35eb(%rip),%rax        # 4057b0 <stdin@@GLIBC_2.2.5>
  4021c5:	48 39 05 f4 35 00 00 	cmp    %rax,0x35f4(%rip)        # 4057c0 <infile>
  4021cc:	74 1b                	je     4021e9 <read_line+0xad>
  4021ce:	48 8d 3d 6b 13 00 00 	lea    0x136b(%rip),%rdi        # 403540 <array.3191+0x380>
  4021d5:	e8 56 ee ff ff       	callq  401030 <getenv@plt>
  4021da:	48 85 c0             	test   %rax,%rax
  4021dd:	74 1b                	je     4021fa <read_line+0xbe>
  4021df:	bf 00 00 00 00       	mov    $0x0,%edi
  4021e4:	e8 e7 ef ff ff       	callq  4011d0 <exit@plt>
  4021e9:	48 8d 3d 32 13 00 00 	lea    0x1332(%rip),%rdi        # 403522 <array.3191+0x362>
  4021f0:	e8 6b ee ff ff       	callq  401060 <puts@plt>
  4021f5:	e8 c5 fe ff ff       	callq  4020bf <explode_bomb>
  4021fa:	48 8b 05 af 35 00 00 	mov    0x35af(%rip),%rax        # 4057b0 <stdin@@GLIBC_2.2.5>
  402201:	48 89 05 b8 35 00 00 	mov    %rax,0x35b8(%rip)        # 4057c0 <infile>
  402208:	b8 00 00 00 00       	mov    $0x0,%eax
  40220d:	e8 48 f8 ff ff       	callq  401a5a <skip>
  402212:	48 85 c0             	test   %rax,%rax
  402215:	0f 85 34 ff ff ff    	jne    40214f <read_line+0x13>
  40221b:	48 8d 3d 00 13 00 00 	lea    0x1300(%rip),%rdi        # 403522 <array.3191+0x362>
  402222:	e8 39 ee ff ff       	callq  401060 <puts@plt>
  402227:	e8 93 fe ff ff       	callq  4020bf <explode_bomb>
  40222c:	48 8d 3d 18 13 00 00 	lea    0x1318(%rip),%rdi        # 40354b <array.3191+0x38b>
  402233:	e8 28 ee ff ff       	callq  401060 <puts@plt>
  402238:	e8 82 fe ff ff       	callq  4020bf <explode_bomb>

000000000040223d <phase_defused>:
  40223d:	48 83 ec 68          	sub    $0x68,%rsp
  402241:	bf 01 00 00 00       	mov    $0x1,%edi
  402246:	e8 bd f8 ff ff       	callq  401b08 <send_msg>
  40224b:	83 3d 6a 35 00 00 06 	cmpl   $0x6,0x356a(%rip)        # 4057bc <num_input_strings>
  402252:	74 05                	je     402259 <phase_defused+0x1c>
  402254:	48 83 c4 68          	add    $0x68,%rsp
  402258:	c3                   	retq   
  402259:	48 8d 4c 24 10       	lea    0x10(%rsp),%rcx
  40225e:	48 8d 54 24 0c       	lea    0xc(%rsp),%rdx
  402263:	48 8d 35 fc 12 00 00 	lea    0x12fc(%rip),%rsi        # 403566 <array.3191+0x3a6>
  40226a:	48 8d 3d 5f 36 00 00 	lea    0x365f(%rip),%rdi        # 4058d0 <input_strings+0xf0>
  402271:	b8 00 00 00 00       	mov    $0x0,%eax
  402276:	e8 f5 ee ff ff       	callq  401170 <__isoc99_sscanf@plt>
  40227b:	83 f8 02             	cmp    $0x2,%eax
  40227e:	74 1a                	je     40229a <phase_defused+0x5d>
  402280:	48 8d 3d 39 10 00 00 	lea    0x1039(%rip),%rdi        # 4032c0 <array.3191+0x100>
  402287:	e8 d4 ed ff ff       	callq  401060 <puts@plt>
  40228c:	48 8d 3d 5d 10 00 00 	lea    0x105d(%rip),%rdi        # 4032f0 <array.3191+0x130>
  402293:	e8 c8 ed ff ff       	callq  401060 <puts@plt>
  402298:	eb ba                	jmp    402254 <phase_defused+0x17>
  40229a:	48 8d 7c 24 10       	lea    0x10(%rsp),%rdi
  40229f:	48 8d 35 c6 12 00 00 	lea    0x12c6(%rip),%rsi        # 40356c <array.3191+0x3ac>
  4022a6:	e8 05 f6 ff ff       	callq  4018b0 <strings_not_equal>
  4022ab:	85 c0                	test   %eax,%eax
  4022ad:	75 d1                	jne    402280 <phase_defused+0x43>
  4022af:	48 8d 3d aa 0f 00 00 	lea    0xfaa(%rip),%rdi        # 403260 <array.3191+0xa0>
  4022b6:	e8 a5 ed ff ff       	callq  401060 <puts@plt>
  4022bb:	48 8d 3d c6 0f 00 00 	lea    0xfc6(%rip),%rdi        # 403288 <array.3191+0xc8>
  4022c2:	e8 99 ed ff ff       	callq  401060 <puts@plt>
  4022c7:	b8 00 00 00 00       	mov    $0x0,%eax
  4022cc:	e8 f0 f4 ff ff       	callq  4017c1 <secret_phase>
  4022d1:	eb ad                	jmp    402280 <phase_defused+0x43>
  4022d3:	66 2e 0f 1f 84 00 00 	nopw   %cs:0x0(%rax,%rax,1)
  4022da:	00 00 00 
  4022dd:	0f 1f 00             	nopl   (%rax)

00000000004022e0 <__libc_csu_init>:
  4022e0:	41 57                	push   %r15
  4022e2:	49 89 d7             	mov    %rdx,%r15
  4022e5:	41 56                	push   %r14
  4022e7:	49 89 f6             	mov    %rsi,%r14
  4022ea:	41 55                	push   %r13
  4022ec:	41 89 fd             	mov    %edi,%r13d
  4022ef:	41 54                	push   %r12
  4022f1:	4c 8d 25 18 2b 00 00 	lea    0x2b18(%rip),%r12        # 404e10 <__frame_dummy_init_array_entry>
  4022f8:	55                   	push   %rbp
  4022f9:	48 8d 2d 18 2b 00 00 	lea    0x2b18(%rip),%rbp        # 404e18 <__init_array_end>
  402300:	53                   	push   %rbx
  402301:	4c 29 e5             	sub    %r12,%rbp
  402304:	48 83 ec 08          	sub    $0x8,%rsp
  402308:	e8 f3 ec ff ff       	callq  401000 <_init>
  40230d:	48 c1 fd 03          	sar    $0x3,%rbp
  402311:	74 1b                	je     40232e <__libc_csu_init+0x4e>
  402313:	31 db                	xor    %ebx,%ebx
  402315:	0f 1f 00             	nopl   (%rax)
  402318:	4c 89 fa             	mov    %r15,%rdx
  40231b:	4c 89 f6             	mov    %r14,%rsi
  40231e:	44 89 ef             	mov    %r13d,%edi
  402321:	41 ff 14 dc          	callq  *(%r12,%rbx,8)
  402325:	48 83 c3 01          	add    $0x1,%rbx
  402329:	48 39 dd             	cmp    %rbx,%rbp
  40232c:	75 ea                	jne    402318 <__libc_csu_init+0x38>
  40232e:	48 83 c4 08          	add    $0x8,%rsp
  402332:	5b                   	pop    %rbx
  402333:	5d                   	pop    %rbp
  402334:	41 5c                	pop    %r12
  402336:	41 5d                	pop    %r13
  402338:	41 5e                	pop    %r14
  40233a:	41 5f                	pop    %r15
  40233c:	c3                   	retq   
  40233d:	0f 1f 00             	nopl   (%rax)

0000000000402340 <__libc_csu_fini>:
  402340:	c3                   	retq   

Disassembly of section .fini:

0000000000402344 <_fini>:
  402344:	48 83 ec 08          	sub    $0x8,%rsp
  402348:	48 83 c4 08          	add    $0x8,%rsp
  40234c:	c3                   	retq   
